(dp1
S'output'
p2
S"<class 'sqlite3.OperationalError'> no such column: auth_user.picture"
p3
sS'layer'
p4
S'/Users/leonpham/Documents/UCSC/CMPS183/web2py/applications/cs183project/controllers/default.py'
p5
sS'code'
p6
S'<code object <module> at 0x10910edb0, file "/Users/leonpham/Documents/UCSC/CMPS183/web2py/applications/cs183project/controllers/default.py", line 10>'
p7
sS'snapshot'
p8
(dp9
S'exception'
p10
(dp11
S'__module__'
p12
S"'sqlite3'"
p13
sS'__getslice__'
p14
S"<method-wrapper '__getslice__' of OperationalError object>"
p15
sS'__str__'
p16
S"<method-wrapper '__str__' of OperationalError object>"
p17
sS'__reduce__'
p18
S'<built-in method __reduce__ of OperationalError object>'
p19
sS'__dict__'
p20
S'{}'
p21
sS'__sizeof__'
p22
S'<built-in method __sizeof__ of OperationalError object>'
p23
sS'__weakref__'
p24
S'None'
p25
sS'message'
p26
S"'no such column: auth_user.picture'"
p27
sS'__init__'
p28
S"<method-wrapper '__init__' of OperationalError object>"
p29
sS'__setattr__'
p30
S"<method-wrapper '__setattr__' of OperationalError object>"
p31
sS'__reduce_ex__'
p32
S'<built-in method __reduce_ex__ of OperationalError object>'
p33
sS'__new__'
p34
S'<built-in method __new__ of type object>'
p35
sS'__format__'
p36
S'<built-in method __format__ of OperationalError object>'
p37
sS'__class__'
p38
S"<class 'sqlite3.OperationalError'>"
p39
sS'__doc__'
p40
S'None'
p41
sS'__getitem__'
p42
S"<method-wrapper '__getitem__' of OperationalError object>"
p43
sS'__setstate__'
p44
S'<built-in method __setstate__ of OperationalError object>'
p45
sS'__getattribute__'
p46
S"<method-wrapper '__getattribute__' of OperationalError object>"
p47
sS'args'
p48
S"('no such column: auth_user.picture',)"
p49
sS'__subclasshook__'
p50
S'<built-in method __subclasshook__ of type object>'
p51
sS'__unicode__'
p52
S'<built-in method __unicode__ of OperationalError object>'
p53
sS'__delattr__'
p54
S"<method-wrapper '__delattr__' of OperationalError object>"
p55
sS'__repr__'
p56
S"<method-wrapper '__repr__' of OperationalError object>"
p57
sS'__hash__'
p58
S"<method-wrapper '__hash__' of OperationalError object>"
p59
ssS'evalue'
p60
S'no such column: auth_user.picture'
p61
sS'request'
p62
cgluon.html
XML_unpickle
p63
(S's.m\x00\x00<div><table><tr><td style="font-weight:bold;vertical-align:top;">ajax</td><td style="vertical-align:top;">:</td><td><div>False</div></td></tr><tr><td style="font-weight:bold;vertical-align:top;">application</td><td style="vertical-align:top;">:</td><td><div>cs183project</div></td></tr><tr><td style="font-weight:bold;vertical-align:top;">args</td><td style="vertical-align:top;">:</td><td><div><table><tr><td><div>login</div></td></tr></table></div></td></tr><tr><td style="font-weight:bold;vertical-align:top;">cid</td><td style="vertical-align:top;">:</td><td><div>None</div></td></tr><tr><td style="font-weight:bold;vertical-align:top;">client</td><td style="vertical-align:top;">:</td><td><div>127.0.0.1</div></td></tr><tr><td style="font-weight:bold;vertical-align:top;">controller</td><td style="vertical-align:top;">:</td><td><div>default</div></td></tr><tr><td style="font-weight:bold;vertical-align:top;">cookies</td><td style="vertical-align:top;">:</td><td><div><table><tr><td style="font-weight:bold;vertical-align:top;">session_id_admin</td><td style="vertical-align:top;">:</td><td><div>127.0.0.1-108cedb0-85a5-4fac-99f4-203536bc3ad0<table><tr><td style="font-weight:bold;vertical-align:top;">comment</td><td style="vertical-align:top;">:</td><td><div></div></td></tr><tr><td style="font-weight:bold;vertical-align:top;">domain</td><td style="vertical-align:top;">:</td><td><div></div></td></tr><tr><td style="font-weight:bold;vertical-align:top;">expires</td><td style="vertical-align:top;">:</td><td><div></div></td></tr><tr><td style="font-weight:bold;vertical-align:top;">httponly</td><td style="vertical-align:top;">:</td><td><div></div></td></tr><tr><td style="font-weight:bold;vertical-align:top;">max-age</td><td style="vertical-align:top;">:</td><td><div></div></td></tr><tr><td style="font-weight:bold;vertical-align:top;">path</td><td style="vertical-align:top;">:</td><td><div></div></td></tr><tr><td style="font-weight:bold;vertical-align:top;">secure</td><td style="vertical-align:top;">:</td><td><div></div></td></tr><tr><td style="font-weight:bold;vertical-align:top;">version</td><td style="vertical-align:top;">:</td><td><div></div></td></tr></table></div></td></tr><tr><td style="font-weight:bold;vertical-align:top;">session_id_cs183project</td><td style="vertical-align:top;">:</td><td><div>6:8416535f-ec0f-4f10-9fdc-88b7570766b9<table><tr><td style="font-weight:bold;vertical-align:top;">comment</td><td style="vertical-align:top;">:</td><td><div></div></td></tr><tr><td style="font-weight:bold;vertical-align:top;">domain</td><td style="vertical-align:top;">:</td><td><div></div></td></tr><tr><td style="font-weight:bold;vertical-align:top;">expires</td><td style="vertical-align:top;">:</td><td><div></div></td></tr><tr><td style="font-weight:bold;vertical-align:top;">httponly</td><td style="vertical-align:top;">:</td><td><div></div></td></tr><tr><td style="font-weight:bold;vertical-align:top;">max-age</td><td style="vertical-align:top;">:</td><td><div></div></td></tr><tr><td style="font-weight:bold;vertical-align:top;">path</td><td style="vertical-align:top;">:</td><td><div></div></td></tr><tr><td style="font-weight:bold;vertical-align:top;">secure</td><td style="vertical-align:top;">:</td><td><div></div></td></tr><tr><td style="font-weight:bold;vertical-align:top;">version</td><td style="vertical-align:top;">:</td><td><div></div></td></tr></table></div></td></tr><tr><td style="font-weight:bold;vertical-align:top;">session_id_hw5</td><td style="vertical-align:top;">:</td><td><div>9:1804b950-fc34-4de7-88dd-913092be79b3<table><tr><td style="font-weight:bold;vertical-align:top;">comment</td><td style="vertical-align:top;">:</td><td><div></div></td></tr><tr><td style="font-weight:bold;vertical-align:top;">domain</td><td style="vertical-align:top;">:</td><td><div></div></td></tr><tr><td style="font-weight:bold;vertical-align:top;">expires</td><td style="vertical-align:top;">:</td><td><div></div></td></tr><tr><td style="font-weight:bold;vertical-align:top;">httponly</td><td style="vertical-align:top;">:</td><td><div></div></td></tr><tr><td style="font-weight:bold;vertical-align:top;">max-age</td><td style="vertical-align:top;">:</td><td><div></div></td></tr><tr><td style="font-weight:bold;vertical-align:top;">path</td><td style="vertical-align:top;">:</td><td><div></div></td></tr><tr><td style="font-weight:bold;vertical-align:top;">secure</td><td style="vertical-align:top;">:</td><td><div></div></td></tr><tr><td style="font-weight:bold;vertical-align:top;">version</td><td style="vertical-align:top;">:</td><td><div></div></td></tr></table></div></td></tr><tr><td style="font-weight:bold;vertical-align:top;">session_id_welcome</td><td style="vertical-align:top;">:</td><td><div>127.0.0.1-d606fb89-f541-4932-bcdd-5637da5b9ed6<table><tr><td style="font-weight:bold;vertical-align:top;">comment</td><td style="vertical-align:top;">:</td><td><div></div></td></tr><tr><td style="font-weight:bold;vertical-align:top;">domain</td><td style="vertical-align:top;">:</td><td><div></div></td></tr><tr><td style="font-weight:bold;vertical-align:top;">expires</td><td style="vertical-align:top;">:</td><td><div></div></td></tr><tr><td style="font-weight:bold;vertical-align:top;">httponly</td><td style="vertical-align:top;">:</td><td><div></div></td></tr><tr><td style="font-weight:bold;vertical-align:top;">max-age</td><td style="vertical-align:top;">:</td><td><div></div></td></tr><tr><td style="font-weight:bold;vertical-align:top;">path</td><td style="vertical-align:top;">:</td><td><div></div></td></tr><tr><td style="font-weight:bold;vertical-align:top;">secure</td><td style="vertical-align:top;">:</td><td><div></div></td></tr><tr><td style="font-weight:bold;vertical-align:top;">version</td><td style="vertical-align:top;">:</td><td><div></div></td></tr></table></div></td></tr></table></div></td></tr><tr><td style="font-weight:bold;vertical-align:top;">env</td><td style="vertical-align:top;">:</td><td><div><table><tr><td style="font-weight:bold;vertical-align:top;">CONTENT_LENGTH</td><td style="vertical-align:top;">:</td><td><div>606</div></td></tr><tr><td style="font-weight:bold;vertical-align:top;">CONTENT_TYPE</td><td style="vertical-align:top;">:</td><td><div>multipart/form-data; boundary=----WebKitFormBoundaryd4EbPOhh8jCDobMN</div></td></tr><tr><td style="font-weight:bold;vertical-align:top;">HTTP_ACCEPT</td><td style="vertical-align:top;">:</td><td><div>text/html,application/xhtml+xml,application/xml;q=0.9,image/webp,image/apng,*/*;q=0.8</div></td></tr><tr><td style="font-weight:bold;vertical-align:top;">HTTP_ACCEPT_ENCODING</td><td style="vertical-align:top;">:</td><td><div>gzip, deflate, br</div></td></tr><tr><td style="font-weight:bold;vertical-align:top;">HTTP_ACCEPT_LANGUAGE</td><td style="vertical-align:top;">:</td><td><div>en-US,en;q=0.9</div></td></tr><tr><td style="font-weight:bold;vertical-align:top;">HTTP_CACHE_CONTROL</td><td style="vertical-align:top;">:</td><td><div>max-age=0</div></td></tr><tr><td style="font-weight:bold;vertical-align:top;">HTTP_CONNECTION</td><td style="vertical-align:top;">:</td><td><div>keep-alive</div></td></tr><tr><td style="font-weight:bold;vertical-align:top;">HTTP_CONTENT_LENGTH</td><td style="vertical-align:top;">:</td><td><div>606</div></td></tr><tr><td style="font-weight:bold;vertical-align:top;">HTTP_CONTENT_TYPE</td><td style="vertical-align:top;">:</td><td><div>multipart/form-data; boundary=----WebKitFormBoundaryd4EbPOhh8jCDobMN</div></td></tr><tr><td style="font-weight:bold;vertical-align:top;">HTTP_COOKIE</td><td style="vertical-align:top;">:</td><td><div>session_id_welcome=127.0.0.1-d606fb89-f541-4932-bcdd-5637da5b9ed6; session_id_admin=127.0.0.1-108cedb0-85a5-4fac-99f4-203536bc3ad0; session_id_hw5=&quot;9:1804b950-fc34-4de7-88dd-913092be79b3&quot;; session_id_cs183project=&quot;6:8416535f-ec0f-4f10-9fdc-88b7570766b9&quot;</div></td></tr><tr><td style="font-weight:bold;vertical-align:top;">HTTP_DNT</td><td style="vertical-align:top;">:</td><td><div>1</div></td></tr><tr><td style="font-weight:bold;vertical-align:top;">HTTP_HOST</td><td style="vertical-align:top;">:</td><td><div>127.0.0.1:8000</div></td></tr><tr><td style="font-weight:bold;vertical-align:top;">HTTP_ORIGIN</td><td style="vertical-align:top;">:</td><td><div>http://127.0.0.1:8000</div></td></tr><tr><td style="font-weight:bold;vertical-align:top;">HTTP_REFERER</td><td style="vertical-align:top;">:</td><td><div>http://127.0.0.1:8000/cs183project/default/user/login?_next=/cs183project/default/index</div></td></tr><tr><td style="font-weight:bold;vertical-align:top;">HTTP_UPGRADE_INSECURE_REQUESTS</td><td style="vertical-align:top;">:</td><td><div>1</div></td></tr><tr><td style="font-weight:bold;vertical-align:top;">HTTP_USER_AGENT</td><td style="vertical-align:top;">:</td><td><div>Mozilla/5.0 (Macintosh; Intel Mac OS X 10_13_4) AppleWebKit/537.36 (KHTML, like Gecko) Chrome/66.0.3359.181 Safari/537.36</div></td></tr><tr><td style="font-weight:bold;vertical-align:top;">PATH_INFO</td><td style="vertical-align:top;">:</td><td><div>/cs183project/default/user/login</div></td></tr><tr><td style="font-weight:bold;vertical-align:top;">QUERY_STRING</td><td style="vertical-align:top;">:</td><td><div>_next=/cs183project/default/index</div></td></tr><tr><td style="font-weight:bold;vertical-align:top;">REMOTE_ADDR</td><td style="vertical-align:top;">:</td><td><div>127.0.0.1</div></td></tr><tr><td style="font-weight:bold;vertical-align:top;">REMOTE_PORT</td><td style="vertical-align:top;">:</td><td><div>55363</div></td></tr><tr><td style="font-weight:bold;vertical-align:top;">REQUEST_METHOD</td><td style="vertical-align:top;">:</td><td><div>POST</div></td></tr><tr><td style="font-weight:bold;vertical-align:top;">SCRIPT_NAME</td><td style="vertical-align:top;">:</td><td><div></div></td></tr><tr><td style="font-weight:bold;vertical-align:top;">SERVER_NAME</td><td style="vertical-align:top;">:</td><td><div>Leon</div></td></tr><tr><td style="font-weight:bold;vertical-align:top;">SERVER_PORT</td><td style="vertical-align:top;">:</td><td><div>8000</div></td></tr><tr><td style="font-weight:bold;vertical-align:top;">SERVER_PROTOCOL</td><td style="vertical-align:top;">:</td><td><div>HTTP/1.1</div></td></tr><tr><td style="font-weight:bold;vertical-align:top;">SERVER_SOFTWARE</td><td style="vertical-align:top;">:</td><td><div>Rocket 1.2.6</div></td></tr><tr><td style="font-weight:bold;vertical-align:top;">app_folders</td><td style="vertical-align:top;">:</td><td><div>set([&#x27;/Users/leonpham/Documents/UCSC/CMPS183/web2py/applications/cs183project/&#x27;, &#x27;/Users/leonpham/Documents/UCSC/CMPS183/web2py/applications/admin/&#x27;, &#x27;/Users/leonpham/Documents/UCSC/CMPS183/web2py/applications/welcome/&#x27;, &#x27;/Users/leonpham/Documents/UCSC/CMPS183/web2py/applications/hw5/&#x27;])</div></td></tr><tr><td style="font-weight:bold;vertical-align:top;">applications_parent</td><td style="vertical-align:top;">:</td><td><div>/Users/leonpham/Documents/UCSC/CMPS183/web2py</div></td></tr><tr><td style="font-weight:bold;vertical-align:top;">cmd_args</td><td style="vertical-align:top;">:</td><td><div><table></table></div></td></tr><tr><td style="font-weight:bold;vertical-align:top;">cmd_options</td><td style="vertical-align:top;">:</td><td><div>&lt;Values at 0x1026995f0: {&#x27;verbose&#x27;: False, &#x27;ip&#x27;: &#x27;127.0.0.1&#x27;, &#x27;debuglevel&#x27;: 30, &#x27;with_scheduler&#x27;: False, &#x27;shutdown_timeout&#x27;: 5, &#x27;taskbar&#x27;: False, &#x27;with_coverage&#x27;: False, &#x27;pid_filename&#x27;: &#x27;httpserver.pid&#x27;, &#x27;maxthreads&#x27;: None, &#x27;softcron&#x27;: False, &#x27;server_name&#x27;: &#x27;Leon&#x27;, &#x27;bpython&#x27;: False, &#x27;nogui&#x27;: False, &#x27;port&#x27;: 8000, &#x27;print_errors&#x27;: True, &#x27;extcron&#x27;: False, &#x27;runcron&#x27;: False, &#x27;run_system_tests&#x27;: False, &#x27;test&#x27;: None, &#x27;folder&#x27;: &#x27;/Users/leonpham/Documents/UCSC/CMPS183/web2py&#x27;, &#x27;config&#x27;: &#x27;&#x27;, &#x27;minthreads&#x27;: None, &#x27;shell&#x27;: None, &#x27;run&#x27;: &#x27;&#x27;, &#x27;log_filename&#x27;: &#x27;httpserver.log&#x27;, &#x27;profiler_dir&#x27;: None, &#x27;args&#x27;: [&#x27;&#x27;], &#x27;socket_timeout&#x27;: 5, &#x27;ssl_ca_certificate&#x27;: None, &#x27;scheduler&#x27;: None, &#x27;interfaces&#x27;: None, &#x27;ssl_private_key&#x27;: &#x27;&#x27;, &#x27;gae&#x27;: None, &#x27;password&#x27;: &#x27;******&#x27;, &#x27;request_queue_size&#x27;: 5, &#x27;ssl_certificate&#x27;: &#x27;&#x27;, &#x27;cronjob&#x27;: False, &#x27;numthreads&#x27;: None, &#x27;quiet&#x27;: False, &#x27;import_models&#x27;: False, &#x27;timeout&#x27;: 10, &#x27;plain&#x27;: False, &#x27;nobanner&#x27;: False}&gt;</div></td></tr><tr><td style="font-weight:bold;vertical-align:top;">content_length</td><td style="vertical-align:top;">:</td><td><div>606</div></td></tr><tr><td style="font-weight:bold;vertical-align:top;">content_type</td><td style="vertical-align:top;">:</td><td><div>multipart/form-data; boundary=----WebKitFormBoundaryd4EbPOhh8jCDobMN</div></td></tr><tr><td style="font-weight:bold;vertical-align:top;">db_sessions</td><td style="vertical-align:top;">:</td><td><div>set([&#x27;hw5&#x27;, &#x27;cs183project&#x27;])</div></td></tr><tr><td style="font-weight:bold;vertical-align:top;">debugging</td><td style="vertical-align:top;">:</td><td><div>False</div></td></tr><tr><td style="font-weight:bold;vertical-align:top;">gluon_parent</td><td style="vertical-align:top;">:</td><td><div>/Users/leonpham/Documents/UCSC/CMPS183/web2py</div></td></tr><tr><td style="font-weight:bold;vertical-align:top;">http_accept</td><td style="vertical-align:top;">:</td><td><div>text/html,application/xhtml+xml,application/xml;q=0.9,image/webp,image/apng,*/*;q=0.8</div></td></tr><tr><td style="font-weight:bold;vertical-align:top;">http_accept_encoding</td><td style="vertical-align:top;">:</td><td><div>gzip, deflate, br</div></td></tr><tr><td style="font-weight:bold;vertical-align:top;">http_accept_language</td><td style="vertical-align:top;">:</td><td><div>en-US,en;q=0.9</div></td></tr><tr><td style="font-weight:bold;vertical-align:top;">http_cache_control</td><td style="vertical-align:top;">:</td><td><div>max-age=0</div></td></tr><tr><td style="font-weight:bold;vertical-align:top;">http_connection</td><td style="vertical-align:top;">:</td><td><div>keep-alive</div></td></tr><tr><td style="font-weight:bold;vertical-align:top;">http_content_length</td><td style="vertical-align:top;">:</td><td><div>606</div></td></tr><tr><td style="font-weight:bold;vertical-align:top;">http_content_type</td><td style="vertical-align:top;">:</td><td><div>multipart/form-data; boundary=----WebKitFormBoundaryd4EbPOhh8jCDobMN</div></td></tr><tr><td style="font-weight:bold;vertical-align:top;">http_cookie</td><td style="vertical-align:top;">:</td><td><div>session_id_welcome=127.0.0.1-d606fb89-f541-4932-bcdd-5637da5b9ed6; session_id_admin=127.0.0.1-108cedb0-85a5-4fac-99f4-203536bc3ad0; session_id_hw5=&quot;9:1804b950-fc34-4de7-88dd-913092be79b3&quot;; session_id_cs183project=&quot;6:8416535f-ec0f-4f10-9fdc-88b7570766b9&quot;</div></td></tr><tr><td style="font-weight:bold;vertical-align:top;">http_dnt</td><td style="vertical-align:top;">:</td><td><div>1</div></td></tr><tr><td style="font-weight:bold;vertical-align:top;">http_host</td><td style="vertical-align:top;">:</td><td><div>127.0.0.1:8000</div></td></tr><tr><td style="font-weight:bold;vertical-align:top;">http_origin</td><td style="vertical-align:top;">:</td><td><div>http://127.0.0.1:8000</div></td></tr><tr><td style="font-weight:bold;vertical-align:top;">http_referer</td><td style="vertical-align:top;">:</td><td><div>http://127.0.0.1:8000/cs183project/default/user/login?_next=/cs183project/default/index</div></td></tr><tr><td style="font-weight:bold;vertical-align:top;">http_upgrade_insecure_requests</td><td style="vertical-align:top;">:</td><td><div>1</div></td></tr><tr><td style="font-weight:bold;vertical-align:top;">http_user_agent</td><td style="vertical-align:top;">:</td><td><div>Mozilla/5.0 (Macintosh; Intel Mac OS X 10_13_4) AppleWebKit/537.36 (KHTML, like Gecko) Chrome/66.0.3359.181 Safari/537.36</div></td></tr><tr><td style="font-weight:bold;vertical-align:top;">is_jython</td><td style="vertical-align:top;">:</td><td><div>False</div></td></tr><tr><td style="font-weight:bold;vertical-align:top;">is_py2</td><td style="vertical-align:top;">:</td><td><div>True</div></td></tr><tr><td style="font-weight:bold;vertical-align:top;">is_pypy</td><td style="vertical-align:top;">:</td><td><div>False</div></td></tr><tr><td style="font-weight:bold;vertical-align:top;">is_source</td><td style="vertical-align:top;">:</td><td><div>True</div></td></tr><tr><td style="font-weight:bold;vertical-align:top;">local_hosts</td><td style="vertical-align:top;">:</td><td><div><table><tr><td><div>::1</div></td></tr><tr><td><div>::ffff:127.0.0.1</div></td></tr><tr><td><div>127.0.0.1</div></td></tr><tr><td><div>Leon</div></td></tr></table></div></td></tr><tr><td style="font-weight:bold;vertical-align:top;">path_info</td><td style="vertical-align:top;">:</td><td><div>/cs183project/default/user/login</div></td></tr><tr><td style="font-weight:bold;vertical-align:top;">query_string</td><td style="vertical-align:top;">:</td><td><div>_next=/cs183project/default/index</div></td></tr><tr><td style="font-weight:bold;vertical-align:top;">remote_addr</td><td style="vertical-align:top;">:</td><td><div>127.0.0.1</div></td></tr><tr><td style="font-weight:bold;vertical-align:top;">remote_port</td><td style="vertical-align:top;">:</td><td><div>55363</div></td></tr><tr><td style="font-weight:bold;vertical-align:top;">request_method</td><td style="vertical-align:top;">:</td><td><div>POST</div></td></tr><tr><td style="font-weight:bold;vertical-align:top;">request_uri</td><td style="vertical-align:top;">:</td><td><div>/cs183project/default/user/login?_next=/cs183project/default/index</div></td></tr><tr><td style="font-weight:bold;vertical-align:top;">script_name</td><td style="vertical-align:top;">:</td><td><div></div></td></tr><tr><td style="font-weight:bold;vertical-align:top;">server_name</td><td style="vertical-align:top;">:</td><td><div>Leon</div></td></tr><tr><td style="font-weight:bold;vertical-align:top;">server_port</td><td style="vertical-align:top;">:</td><td><div>8000</div></td></tr><tr><td style="font-weight:bold;vertical-align:top;">server_protocol</td><td style="vertical-align:top;">:</td><td><div>HTTP/1.1</div></td></tr><tr><td style="font-weight:bold;vertical-align:top;">server_software</td><td style="vertical-align:top;">:</td><td><div>Rocket 1.2.6</div></td></tr><tr><td style="font-weight:bold;vertical-align:top;">web2py_path</td><td style="vertical-align:top;">:</td><td><div>/Users/leonpham/Documents/UCSC/CMPS183/web2py</div></td></tr><tr><td style="font-weight:bold;vertical-align:top;">web2py_version</td><td style="vertical-align:top;">:</td><td><div>2.16.1-stable+timestamp.2017.11.14.05.54.25</div></td></tr><tr><td style="font-weight:bold;vertical-align:top;">wsgi.errors</td><td style="vertical-align:top;">:</td><td><div>&lt;open file &#x27;&lt;stderr&gt;&#x27;, mode &#x27;w&#x27; at 0x100e081e0&gt;</div></td></tr><tr><td style="font-weight:bold;vertical-align:top;">wsgi.file_wrapper</td><td style="vertical-align:top;">:</td><td><div>&lt;class wsgiref.util.FileWrapper at 0x102657738&gt;</div></td></tr><tr><td style="font-weight:bold;vertical-align:top;">wsgi.input</td><td style="vertical-align:top;">:</td><td><div>&lt;socket._fileobject object at 0x105522a50&gt;</div></td></tr><tr><td style="font-weight:bold;vertical-align:top;">wsgi.multiprocess</td><td style="vertical-align:top;">:</td><td><div>False</div></td></tr><tr><td style="font-weight:bold;vertical-align:top;">wsgi.multithread</td><td style="vertical-align:top;">:</td><td><div>True</div></td></tr><tr><td style="font-weight:bold;vertical-align:top;">wsgi.run_once</td><td style="vertical-align:top;">:</td><td><div>False</div></td></tr><tr><td style="font-weight:bold;vertical-align:top;">wsgi.url_scheme</td><td style="vertical-align:top;">:</td><td><div>http</div></td></tr><tr><td style="font-weight:bold;vertical-align:top;">wsgi.version</td><td style="vertical-align:top;">:</td><td><div><table><tr><td><div>1</div></td></tr><tr><td><div>0</div></td></tr></table></div></td></tr><tr><td style="font-weight:bold;vertical-align:top;">wsgi_errors</td><td style="vertical-align:top;">:</td><td><div>&lt;open file &#x27;&lt;stderr&gt;&#x27;, mode &#x27;w&#x27; at 0x100e081e0&gt;</div></td></tr><tr><td style="font-weight:bold;vertical-align:top;">wsgi_file_wrapper</td><td style="vertical-align:top;">:</td><td><div>&lt;class wsgiref.util.FileWrapper at 0x102657738&gt;</div></td></tr><tr><td style="font-weight:bold;vertical-align:top;">wsgi_input</td><td style="vertical-align:top;">:</td><td><div>&lt;socket._fileobject object at 0x105522a50&gt;</div></td></tr><tr><td style="font-weight:bold;vertical-align:top;">wsgi_multiprocess</td><td style="vertical-align:top;">:</td><td><div>False</div></td></tr><tr><td style="font-weight:bold;vertical-align:top;">wsgi_multithread</td><td style="vertical-align:top;">:</td><td><div>True</div></td></tr><tr><td style="font-weight:bold;vertical-align:top;">wsgi_run_once</td><td style="vertical-align:top;">:</td><td><div>False</div></td></tr><tr><td style="font-weight:bold;vertical-align:top;">wsgi_url_scheme</td><td style="vertical-align:top;">:</td><td><div>http</div></td></tr><tr><td style="font-weight:bold;vertical-align:top;">wsgi_version</td><td style="vertical-align:top;">:</td><td><div><table><tr><td><div>1</div></td></tr><tr><td><div>0</div></td></tr></table></div></td></tr></table></div></td></tr><tr><td style="font-weight:bold;vertical-align:top;">extension</td><td style="vertical-align:top;">:</td><td><div>html</div></td></tr><tr><td style="font-weight:bold;vertical-align:top;">folder</td><td style="vertical-align:top;">:</td><td><div>/Users/leonpham/Documents/UCSC/CMPS183/web2py/applications/cs183project/</div></td></tr><tr><td style="font-weight:bold;vertical-align:top;">function</td><td style="vertical-align:top;">:</td><td><div>user</div></td></tr><tr><td style="font-weight:bold;vertical-align:top;">global_settings</td><td style="vertical-align:top;">:</td><td><div><table><tr><td style="font-weight:bold;vertical-align:top;">app_folders</td><td style="vertical-align:top;">:</td><td><div>set([&#x27;/Users/leonpham/Documents/UCSC/CMPS183/web2py/applications/cs183project/&#x27;, &#x27;/Users/leonpham/Documents/UCSC/CMPS183/web2py/applications/admin/&#x27;, &#x27;/Users/leonpham/Documents/UCSC/CMPS183/web2py/applications/welcome/&#x27;, &#x27;/Users/leonpham/Documents/UCSC/CMPS183/web2py/applications/hw5/&#x27;])</div></td></tr><tr><td style="font-weight:bold;vertical-align:top;">applications_parent</td><td style="vertical-align:top;">:</td><td><div>/Users/leonpham/Documents/UCSC/CMPS183/web2py</div></td></tr><tr><td style="font-weight:bold;vertical-align:top;">cmd_args</td><td style="vertical-align:top;">:</td><td><div><table></table></div></td></tr><tr><td style="font-weight:bold;vertical-align:top;">cmd_options</td><td style="vertical-align:top;">:</td><td><div>&lt;Values at 0x1026995f0: {&#x27;verbose&#x27;: False, &#x27;ip&#x27;: &#x27;127.0.0.1&#x27;, &#x27;debuglevel&#x27;: 30, &#x27;with_scheduler&#x27;: False, &#x27;shutdown_timeout&#x27;: 5, &#x27;taskbar&#x27;: False, &#x27;with_coverage&#x27;: False, &#x27;pid_filename&#x27;: &#x27;httpserver.pid&#x27;, &#x27;maxthreads&#x27;: None, &#x27;softcron&#x27;: False, &#x27;server_name&#x27;: &#x27;Leon&#x27;, &#x27;bpython&#x27;: False, &#x27;nogui&#x27;: False, &#x27;port&#x27;: 8000, &#x27;print_errors&#x27;: True, &#x27;extcron&#x27;: False, &#x27;runcron&#x27;: False, &#x27;run_system_tests&#x27;: False, &#x27;test&#x27;: None, &#x27;folder&#x27;: &#x27;/Users/leonpham/Documents/UCSC/CMPS183/web2py&#x27;, &#x27;config&#x27;: &#x27;&#x27;, &#x27;minthreads&#x27;: None, &#x27;shell&#x27;: None, &#x27;run&#x27;: &#x27;&#x27;, &#x27;log_filename&#x27;: &#x27;httpserver.log&#x27;, &#x27;profiler_dir&#x27;: None, &#x27;args&#x27;: [&#x27;&#x27;], &#x27;socket_timeout&#x27;: 5, &#x27;ssl_ca_certificate&#x27;: None, &#x27;scheduler&#x27;: None, &#x27;interfaces&#x27;: None, &#x27;ssl_private_key&#x27;: &#x27;&#x27;, &#x27;gae&#x27;: None, &#x27;password&#x27;: &#x27;******&#x27;, &#x27;request_queue_size&#x27;: 5, &#x27;ssl_certificate&#x27;: &#x27;&#x27;, &#x27;cronjob&#x27;: False, &#x27;numthreads&#x27;: None, &#x27;quiet&#x27;: False, &#x27;import_models&#x27;: False, &#x27;timeout&#x27;: 10, &#x27;plain&#x27;: False, &#x27;nobanner&#x27;: False}&gt;</div></td></tr><tr><td style="font-weight:bold;vertical-align:top;">db_sessions</td><td style="vertical-align:top;">:</td><td><div>set([&#x27;hw5&#x27;, &#x27;cs183project&#x27;])</div></td></tr><tr><td style="font-weight:bold;vertical-align:top;">debugging</td><td style="vertical-align:top;">:</td><td><div>False</div></td></tr><tr><td style="font-weight:bold;vertical-align:top;">gluon_parent</td><td style="vertical-align:top;">:</td><td><div>/Users/leonpham/Documents/UCSC/CMPS183/web2py</div></td></tr><tr><td style="font-weight:bold;vertical-align:top;">is_jython</td><td style="vertical-align:top;">:</td><td><div>False</div></td></tr><tr><td style="font-weight:bold;vertical-align:top;">is_py2</td><td style="vertical-align:top;">:</td><td><div>True</div></td></tr><tr><td style="font-weight:bold;vertical-align:top;">is_pypy</td><td style="vertical-align:top;">:</td><td><div>False</div></td></tr><tr><td style="font-weight:bold;vertical-align:top;">is_source</td><td style="vertical-align:top;">:</td><td><div>True</div></td></tr><tr><td style="font-weight:bold;vertical-align:top;">local_hosts</td><td style="vertical-align:top;">:</td><td><div><table><tr><td><div>::1</div></td></tr><tr><td><div>::ffff:127.0.0.1</div></td></tr><tr><td><div>127.0.0.1</div></td></tr><tr><td><div>Leon</div></td></tr></table></div></td></tr><tr><td style="font-weight:bold;vertical-align:top;">web2py_version</td><td style="vertical-align:top;">:</td><td><div>2.16.1-stable+timestamp.2017.11.14.05.54.25</div></td></tr></table></div></td></tr><tr><td style="font-weight:bold;vertical-align:top;">is_https</td><td style="vertical-align:top;">:</td><td><div>False</div></td></tr><tr><td style="font-weight:bold;vertical-align:top;">is_local</td><td style="vertical-align:top;">:</td><td><div>True</div></td></tr><tr><td style="font-weight:bold;vertical-align:top;">is_restful</td><td style="vertical-align:top;">:</td><td><div>False</div></td></tr><tr><td style="font-weight:bold;vertical-align:top;">is_scheduler</td><td style="vertical-align:top;">:</td><td><div>False</div></td></tr><tr><td style="font-weight:bold;vertical-align:top;">is_shell</td><td style="vertical-align:top;">:</td><td><div>False</div></td></tr><tr><td style="font-weight:bold;vertical-align:top;">now</td><td style="vertical-align:top;">:</td><td><div>datetime.datetime(2018, 6, 5, 17, 14, 12, 120248)</div></td></tr><tr><td style="font-weight:bold;vertical-align:top;">raw_args</td><td style="vertical-align:top;">:</td><td><div>login</div></td></tr><tr><td style="font-weight:bold;vertical-align:top;">raw_extension</td><td style="vertical-align:top;">:</td><td><div>None</div></td></tr><tr><td style="font-weight:bold;vertical-align:top;">url</td><td style="vertical-align:top;">:</td><td><div>/cs183project/default/user/login</div></td></tr><tr><td style="font-weight:bold;vertical-align:top;">utcnow</td><td style="vertical-align:top;">:</td><td><div>datetime.datetime(2018, 6, 6, 0, 14, 12, 120257)</div></td></tr><tr><td style="font-weight:bold;vertical-align:top;">wsgi</td><td style="vertical-align:top;">:</td><td><div>&lt;gluon.main.LazyWSGI object at 0x107755d50&gt;</div></td></tr></table></div>'
tRp64
sS'frames'
p65
(lp66
(dp67
S'file'
p68
S'/Users/leonpham/Documents/UCSC/CMPS183/web2py/gluon/restricted.py'
p69
sS'dump'
p70
(dp71
S'environment'
p72
S"{'A': <class 'gluon.html.A'>, 'ANY_OF': <class 'gluon.validators.ANY_OF'>, 'ASSIGNJS': <function ASSIGNJS>, 'AppConfig': <function AppConfig>, 'Auth': <class 'gluon.tools.Auth'>, 'B': <class 'gluon.html.B'>, 'BEAUTIFY': <class 'gluon.html.BEAUTIFY'>, 'BODY': <class 'gluon.html.BODY'>, 'BR': <class 'gluon.html.BR'>, 'BUTTON': <class 'gluon.html.BUTTON'>, ...}"
p73
sS'ccode'
p74
S'<code object <module> at 0x10910edb0, file "/Use...ns/cs183project/controllers/default.py", line 10>'
p75
ssS'lnum'
p76
I219
sS'lines'
p77
(dp78
I214
S'    if environment is None:'
p79
sI215
S'        environment = {}'
p80
sI216
S"    environment['__file__'] = layer"
p81
sI217
S"    environment['__name__'] = '__restricted__'"
p82
sI218
S'    try:'
p83
sI219
S'        exec(ccode, environment)'
p84
sI220
S'    except HTTP:'
p85
sI221
S'        raise'
p86
sI222
S'    except RestrictedError:'
p87
sI223
S'        # do not encapsulate (obfuscate) the original RestrictedError'
p88
ssS'call'
p89
S'(ccode=<code object <module> at 0x10910edb0, file "/Use...ns/cs183project/controllers/default.py", line 10>, environment={\'A\': <class \'gluon.html.A\'>, \'ANY_OF\': <class \'gluon.validators.ANY_OF\'>, \'ASSIGNJS\': <function ASSIGNJS>, \'AppConfig\': <function AppConfig>, \'Auth\': <class \'gluon.tools.Auth\'>, \'B\': <class \'gluon.html.B\'>, \'BEAUTIFY\': <class \'gluon.html.BEAUTIFY\'>, \'BODY\': <class \'gluon.html.BODY\'>, \'BR\': <class \'gluon.html.BR\'>, \'BUTTON\': <class \'gluon.html.BUTTON\'>, ...}, layer=\'/Users/leonpham/Documents/UCSC/CMPS183/web2py/applications/cs183project/controllers/default.py\', scode=<code object <module> at 0x10910edb0, file "/Use...ns/cs183project/controllers/default.py", line 10>)'
p90
sS'func'
p91
S'restricted'
p92
sa(dp93
g68
S'/Users/leonpham/Documents/UCSC/CMPS183/web2py/applications/cs183project/controllers/default.py'
p94
sg70
(dp95
sg76
I96
sg77
(dp96
I85
S'def change_user_image():'
p97
sI86
S''
sI87
S'    form = SQLFORM(db.auth_user.picture)'
p98
sI88
S'    return dict(form=form)'
p99
sI89
S''
sI90
S''
sI91
S''
sI92
S''
sI93
S''
sI94
S''
ssg89
S'()'
p100
sg91
S'<module>'
p101
sa(dp102
g68
S'/Users/leonpham/Documents/UCSC/CMPS183/web2py/gluon/globals.py'
p103
sg70
(dp104
S'self'
p105
S'undefined'
p106
sS'f'
S'<function user>'
p107
ssg76
I419
sg77
(dp108
I416
S'        self.menu = []             # used by the default view layout'
p109
sI417
S'        self.files = []            # used by web2py_ajax.html'
p110
sI418
S'        self._vars = None'
p111
sI419
S'        self._caller = lambda f: f()'
p112
sI420
S'        self._view_environment = None'
p113
sI421
S'        self._custom_commit = None'
p114
sI422
S'        self._custom_rollback = None'
p115
sI423
S"        self.generic_patterns = ['*']"
p116
sI414
S"        self.flash = ''            # used by the default view layout"
p117
sI415
S'        self.meta = Storage()      # used by web2py_ajax.html'
p118
ssg89
S'(f=<function user>)'
p119
sg91
S'<lambda>'
p120
sa(dp121
g68
S'/Users/leonpham/Documents/UCSC/CMPS183/web2py/applications/cs183project/controllers/default.py'
p122
sg70
(dp123
S'global auth'
p124
S'<gluon.tools.Auth object>'
p125
sS'form'
p126
g106
sS'builtindict'
p127
S"<type 'dict'>"
p128
ssg76
I41
sg77
(dp129
I36
S"        @auth.requires_membership('group name')"
p130
sI37
S"        @auth.requires_permission('read','table name',record_id)"
p131
sI38
S'    to decorate functions that need access control'
p132
sI39
S'    also notice there is http://..../[app]/appadmin/manage/auth to allow administrator to manage users'
p133
sI40
S'    """'
p134
sI41
S'    return dict(form=auth())'
p135
sI42
S''
sI43
S''
sI44
S'@cache.action()'
p136
sI45
S'def download():'
p137
ssg89
S'()'
p138
sg91
S'user'
p139
sa(dp140
g68
S'/Users/leonpham/Documents/UCSC/CMPS183/web2py/gluon/tools.py'
p141
sg70
(dp142
S'self'
p143
S'<gluon.tools.Auth object>'
p144
sS'args'
p145
S"['login']"
p146
sS'builtingetattr'
p147
S'<built-in function getattr>'
p148
ssg76
I1925
sg77
(dp149
I1920
S"                       'impersonate', 'not_authorized', 'confirm_registration',"
p150
sI1921
S"                       'bulk_register', 'manage_tokens', 'jwt'):"
p151
sI1922
S"            if len(request.args) >= 2 and args[0] == 'impersonate':"
p152
sI1923
S'                return getattr(self, args[0])(request.args[1])'
p153
sI1924
S'            else:'
p154
sI1925
S'                return getattr(self, args[0])()'
p155
sI1926
S"        elif args[0] == 'cas' and not self.settings.cas_provider:"
p156
sI1927
S"            if args(1) == self.settings.cas_actions['login']:"
p157
sI1928
S'                return self.cas_login(version=2)'
p158
sI1929
S"            elif args(1) == self.settings.cas_actions['validate']:"
p159
ssg89
S'(self=<gluon.tools.Auth object>)'
p160
sg91
S'__call__'
p161
sa(dp162
g68
S'/Users/leonpham/Documents/UCSC/CMPS183/web2py/gluon/tools.py'
p163
sg70
(dp164
S'table_user'
p165
S'<Table auth_user (id, first_name, last_name, ema...ord_key, registration_id, picture, picture_file)>'
p166
sS'username'
p167
S"'email'"
p168
sS'entered_username'
p169
S"'hello5@gmail.com'"
p170
sS'user'
p171
S'None'
p172
ssg76
I2704
sg77
(dp173
I2699
S'                    entered_username = form.vars[username]'
p174
sI2700
S"                    if multi_login and '@' in entered_username:"
p175
sI2701
S"                        # if '@' in username check for email, not username"
p176
sI2702
S'                        user = table_user(email=entered_username)'
p177
sI2703
S'                    else:'
p178
sI2704
S'                        user = table_user(**{username: entered_username})'
p179
sI2705
S'                    if user:'
p180
sI2706
S'                        # user in db, check if registration pending or disabled'
p181
sI2707
S'                        temp_user = user'
p182
sI2708
S"                        if (temp_user.registration_key or '').startswith('pending'):"
p183
ssg89
S"(self=<gluon.tools.Auth object>, next='/cs183project/default/index', onvalidation=[], onaccept=[], log='User %(id)s Logged-in')"
p184
sg91
S'login'
p185
sa(dp186
g68
S'/Users/leonpham/Documents/UCSC/CMPS183/web2py/gluon/packages/dal/pydal/objects.py'
p187
sg70
(dp188
S'orderby_on_limitby'
p189
g106
sS').first'
p190
g106
sS'builtinFalse'
p191
S'False'
p192
ssg76
I585
sg77
(dp193
I580
S'            query = reduce(lambda a, b: a & b, ['
p194
sI581
S'                           self[k] == v for k, v in iteritems(kwargs)])'
p195
sI582
S'            return self._db(query).select(limitby=(0, 1),'
p196
sI583
S'                                          for_update=for_update,'
p197
sI584
S'                                          orderby=orderby,'
p198
sI585
S'                                          orderby_on_limitby=False).first()'
p199
sI586
S'        else:'
p200
sI587
S'            return None'
p201
sI588
S''
sI589
S'    def __setitem__(self, key, value):'
p202
ssg89
S"(self=<Table auth_user (id, first_name, last_name, ema...ord_key, registration_id, picture, picture_file)>, key=<function <lambda>>, **kwargs={'email': 'hello5@gmail.com'})"
p203
sg91
g161
sa(dp204
g68
S'/Users/leonpham/Documents/UCSC/CMPS183/web2py/gluon/packages/dal/pydal/objects.py'
p205
sg70
(dp206
S'self.query'
p207
S'<Query ("auth_user"."email" = \'hello5@gmail.com\')>'
p208
sS'adapter.select'
p209
S'<bound method SQLite.select of <pydal.adapters.sqlite.SQLite object>>'
p210
sS'fields'
p211
S'[<pydal.objects.Field object>, <pydal.objects.Field object>, <pydal.objects.Field object>, <pydal.objects.Field object>, <pydal.objects.Field object>, <pydal.objects.Field object>, <pydal.objects.Field object>, <pydal.objects.Field object>, <pydal.objects.Field object>, <pydal.objects.Field object>]'
p212
sS'adapter'
p213
S'<pydal.adapters.sqlite.SQLite object>'
p214
sS'attributes'
p215
S"{'for_update': False, 'limitby': (0, 1), 'orderby': None, 'orderby_on_limitby': False}"
p216
sS'self'
p217
S'<Set ("auth_user"."email" = \'hello5@gmail.com\')>'
p218
ssg76
I2250
sg77
(dp219
I2245
S"                                    attributes.get('join', None),"
p220
sI2246
S"                                    attributes.get('left', None),"
p221
sI2247
S"                                    attributes.get('orderby', None),"
p222
sI2248
S"                                    attributes.get('groupby', None))"
p223
sI2249
S'        fields = adapter.expand_all(fields, tablenames)'
p224
sI2250
S'        return adapter.select(self.query, fields, attributes)'
p225
sI2251
S''
sI2252
S'    def iterselect(self, *fields, **attributes):'
p226
sI2253
S'        adapter = self.db._adapter'
p227
sI2254
S'        tablenames = adapter.tables(self.query,'
p228
ssg89
S'(self=<Set ("auth_user"."email" = \'hello5@gmail.com\')>, *fields=[<pydal.objects.Field object>, <pydal.objects.Field object>, <pydal.objects.Field object>, <pydal.objects.Field object>, <pydal.objects.Field object>, <pydal.objects.Field object>, <pydal.objects.Field object>, <pydal.objects.Field object>, <pydal.objects.Field object>, <pydal.objects.Field object>], **attributes={\'for_update\': False, \'limitby\': (0, 1), \'orderby\': None, \'orderby_on_limitby\': False})'
p229
sg91
S'select'
p230
sa(dp231
g68
S'/Users/leonpham/Documents/UCSC/CMPS183/web2py/gluon/packages/dal/pydal/adapters/sqlite.py'
p232
sg70
(dp233
S'fields'
p234
S'[<pydal.objects.Field object>, <pydal.objects.Field object>, <pydal.objects.Field object>, <pydal.objects.Field object>, <pydal.objects.Field object>, <pydal.objects.Field object>, <pydal.objects.Field object>, <pydal.objects.Field object>, <pydal.objects.Field object>, <pydal.objects.Field object>]'
p235
sS'self'
p236
S'<pydal.adapters.sqlite.SQLite object>'
p237
sS').select'
p238
S'<bound method SQLite.select of <pydal.adapters.sqlite.SQLite object>>'
p239
sS'attributes'
p240
S"{'for_update': False, 'limitby': (0, 1), 'orderby': None, 'orderby_on_limitby': False}"
p241
sS'query'
p242
S'<Query ("auth_user"."email" = \'hello5@gmail.com\')>'
p243
sS'builtinsuper'
p244
S"<type 'super'>"
p245
sS'global SQLite'
p246
S"<class 'pydal.adapters.sqlite.SQLite'>"
p247
ssg76
I82
sg77
(dp248
I77
S"            self.execute('PRAGMA foreign_keys=ON;')"
p249
sI78
S''
sI79
S'    def select(self, query, fields, attributes):'
p250
sI80
S"        if attributes.get('for_update', False) and 'cache' not in attributes:"
p251
sI81
S"            self.execute('BEGIN IMMEDIATE TRANSACTION;')"
p252
sI82
S'        return super(SQLite, self).select(query, fields, attributes)'
p253
sI83
S''
sI84
S'    def delete(self, table, query):'
p254
sI85
S'        db = self.db'
p255
sI86
S'        deleted = [x[table._id.name] for x in db(query).select(table._id)]'
p256
ssg89
S'(self=<pydal.adapters.sqlite.SQLite object>, query=<Query ("auth_user"."email" = \'hello5@gmail.com\')>, fields=[<pydal.objects.Field object>, <pydal.objects.Field object>, <pydal.objects.Field object>, <pydal.objects.Field object>, <pydal.objects.Field object>, <pydal.objects.Field object>, <pydal.objects.Field object>, <pydal.objects.Field object>, <pydal.objects.Field object>, <pydal.objects.Field object>], attributes={\'for_update\': False, \'limitby\': (0, 1), \'orderby\': None, \'orderby_on_limitby\': False})'
p257
sg91
g230
sa(dp258
g68
S'/Users/leonpham/Documents/UCSC/CMPS183/web2py/gluon/packages/dal/pydal/adapters/base.py'
p259
sg70
(dp260
S'self._select_aux'
p261
S'<bound method SQLite._select_aux of <pydal.adapters.sqlite.SQLite object>>'
p262
sS'fields'
p263
S'[<pydal.objects.Field object>, <pydal.objects.Field object>, <pydal.objects.Field object>, <pydal.objects.Field object>, <pydal.objects.Field object>, <pydal.objects.Field object>, <pydal.objects.Field object>, <pydal.objects.Field object>, <pydal.objects.Field object>, <pydal.objects.Field object>]'
p264
sS'self'
p265
S'<pydal.adapters.sqlite.SQLite object>'
p266
sS'sql'
p267
S'\'SELECT "auth_user"."id", "auth_user"."first_name..."."email" = \\\'hello5@gmail.com\\\') LIMIT 1 OFFSET 0;\''
p268
sS'attributes'
p269
S"{'for_update': False, 'limitby': (0, 1), 'orderby': None, 'orderby_on_limitby': False}"
p270
sS'colnames'
p271
S"['auth_user.id', 'auth_user.first_name', 'auth_user.last_name', 'auth_user.email', 'auth_user.password', 'auth_user.registration_key', 'auth_user.reset_password_key', 'auth_user.registration_id', 'auth_user.picture', 'auth_user.picture_file']"
p272
ssg76
I762
sg77
(dp273
I757
S'        colnames, sql = self._select_wcols(query, fields, **attributes)'
p274
sI758
S"        cache = attributes.get('cache', None)"
p275
sI759
S"        if cache and attributes.get('cacheable', False):"
p276
sI760
S'            return self._cached_select('
p277
sI761
S'                cache, sql, fields, attributes, colnames)'
p278
sI762
S'        return self._select_aux(sql, fields, attributes, colnames)'
p279
sI763
S''
sI764
S'    def iterselect(self, query, fields, attributes):'
p280
sI765
S'        colnames, sql = self._select_wcols(query, fields, **attributes)'
p281
sI766
S"        cacheable = attributes.get('cacheable', False)"
p282
ssg89
S'(self=<pydal.adapters.sqlite.SQLite object>, query=<Query ("auth_user"."email" = \'hello5@gmail.com\')>, fields=[<pydal.objects.Field object>, <pydal.objects.Field object>, <pydal.objects.Field object>, <pydal.objects.Field object>, <pydal.objects.Field object>, <pydal.objects.Field object>, <pydal.objects.Field object>, <pydal.objects.Field object>, <pydal.objects.Field object>, <pydal.objects.Field object>], attributes={\'for_update\': False, \'limitby\': (0, 1), \'orderby\': None, \'orderby_on_limitby\': False})'
p283
sg91
g230
sa(dp284
g68
S'/Users/leonpham/Documents/UCSC/CMPS183/web2py/gluon/packages/dal/pydal/adapters/base.py'
p285
sg70
(dp286
S'self'
p287
S'<pydal.adapters.sqlite.SQLite object>'
p288
sS'rows'
p289
g106
sS'self._select_aux_execute'
p290
S'<bound method SQLite._select_aux_execute of <pydal.adapters.sqlite.SQLite object>>'
p291
sS'sql'
p292
S'\'SELECT "auth_user"."id", "auth_user"."first_name..."."email" = \\\'hello5@gmail.com\\\') LIMIT 1 OFFSET 0;\''
p293
ssg76
I718
sg77
(dp294
I713
S'        return self.cursor.fetchall()'
p295
sI714
S''
sI715
S'    def _select_aux(self, sql, fields, attributes, colnames):'
p296
sI716
S"        cache = attributes.get('cache', None)"
p297
sI717
S'        if not cache:'
p298
sI718
S'            rows = self._select_aux_execute(sql)'
p299
sI719
S'        else:'
p300
sI720
S'            if isinstance(cache, dict):'
p301
sI721
S"                cache_model = cache['model']"
p302
sI722
S"                time_expire = cache['expiration']"
p303
ssg89
S'(self=<pydal.adapters.sqlite.SQLite object>, sql=\'SELECT "auth_user"."id", "auth_user"."first_name..."."email" = \\\'hello5@gmail.com\\\') LIMIT 1 OFFSET 0;\', fields=[<pydal.objects.Field object>, <pydal.objects.Field object>, <pydal.objects.Field object>, <pydal.objects.Field object>, <pydal.objects.Field object>, <pydal.objects.Field object>, <pydal.objects.Field object>, <pydal.objects.Field object>, <pydal.objects.Field object>, <pydal.objects.Field object>], attributes={\'for_update\': False, \'limitby\': (0, 1), \'orderby\': None, \'orderby_on_limitby\': False}, colnames=[\'auth_user.id\', \'auth_user.first_name\', \'auth_user.last_name\', \'auth_user.email\', \'auth_user.password\', \'auth_user.registration_key\', \'auth_user.reset_password_key\', \'auth_user.registration_id\', \'auth_user.picture\', \'auth_user.picture_file\'])'
p304
sg91
S'_select_aux'
p305
sa(dp306
g68
S'/Users/leonpham/Documents/UCSC/CMPS183/web2py/gluon/packages/dal/pydal/adapters/base.py'
p307
sg70
(dp308
S'self'
p309
S'<pydal.adapters.sqlite.SQLite object>'
p310
sS'self.execute'
p311
S'<bound method SQLite.wrap of <pydal.adapters.sqlite.SQLite object>>'
p312
sS'sql'
p313
S'\'SELECT "auth_user"."id", "auth_user"."first_name..."."email" = \\\'hello5@gmail.com\\\') LIMIT 1 OFFSET 0;\''
p314
ssg76
I712
sg77
(dp315
I707
S''
sI708
S'    def nested_select(self, query, fields, attributes):'
p316
sI709
S'        return Select(self.db, query, fields, attributes)'
p317
sI710
S''
sI711
S'    def _select_aux_execute(self, sql):'
p318
sI712
S'        self.execute(sql)'
p319
sI713
S'        return self.cursor.fetchall()'
p320
sI714
S''
sI715
S'    def _select_aux(self, sql, fields, attributes, colnames):'
p321
sI716
S"        cache = attributes.get('cache', None)"
p322
ssg89
S'(self=<pydal.adapters.sqlite.SQLite object>, sql=\'SELECT "auth_user"."id", "auth_user"."first_name..."."email" = \\\'hello5@gmail.com\\\') LIMIT 1 OFFSET 0;\')'
p323
sg91
S'_select_aux_execute'
p324
sa(dp325
g68
S'/Users/leonpham/Documents/UCSC/CMPS183/web2py/gluon/packages/dal/pydal/adapters/__init__.py'
p326
sg70
(dp327
S'kwargs'
p328
g21
sS'args'
p329
S'(<pydal.adapters.sqlite.SQLite object>, \'SELECT "auth_user"."id", "auth_user"."first_name..."."email" = \\\'hello5@gmail.com\\\') LIMIT 1 OFFSET 0;\')'
p330
sS'f'
S'<function execute>'
p331
ssg76
I67
sg77
(dp332
I64
S'            if len(args) > 1:'
p333
sI65
S'                raise ValueError(args[1])'
p334
sI66
S"            raise RuntimeError('no connection available')"
p335
sI67
S'        return f(*args, **kwargs)'
p336
sI68
S'    return wrap'
p337
sI69
S''
sI70
S''
sI71
S'from .base import SQLAdapter, NoSQLAdapter'
p338
sI62
S'    def wrap(*args, **kwargs):'
p339
sI63
S'        if not args[0].connection:'
p340
ssg89
S'(*args=(<pydal.adapters.sqlite.SQLite object>, \'SELECT "auth_user"."id", "auth_user"."first_name..."."email" = \\\'hello5@gmail.com\\\') LIMIT 1 OFFSET 0;\'), **kwargs={})'
p341
sg91
S'wrap'
p342
sa(dp343
g68
S'/Users/leonpham/Documents/UCSC/CMPS183/web2py/gluon/packages/dal/pydal/adapters/base.py'
p344
sg70
(dp345
S'rv'
p346
g106
sS'self'
p347
S'<pydal.adapters.sqlite.SQLite object>'
p348
sS'args'
p349
S'(\'SELECT "auth_user"."id", "auth_user"."first_name..."."email" = \\\'hello5@gmail.com\\\') LIMIT 1 OFFSET 0;\',)'
p350
sS'self.cursor'
p351
S'<sqlite3.Cursor object>'
p352
sS'command'
p353
S'\'SELECT "auth_user"."id", "auth_user"."first_name..."."email" = \\\'hello5@gmail.com\\\') LIMIT 1 OFFSET 0;\''
p354
sS'self.cursor.execute'
p355
S'<built-in method execute of sqlite3.Cursor object>'
p356
sS'kwargs'
p357
g21
ssg76
I412
sg77
(dp358
I416
S''
sI407
S'    def execute(self, *args, **kwargs):'
p359
sI408
S'        command = self.filter_sql_command(args[0])'
p360
sI409
S'        handlers = self._build_handlers_for_execution()'
p361
sI410
S'        for handler in handlers:'
p362
sI411
S'            handler.before_execute(command)'
p363
sI412
S'        rv = self.cursor.execute(command, *args[1:], **kwargs)'
p364
sI413
S'        for handler in handlers:'
p365
sI414
S'            handler.after_execute(command)'
p366
sI415
S'        return rv'
p367
ssg89
S'(self=<pydal.adapters.sqlite.SQLite object>, *args=(\'SELECT "auth_user"."id", "auth_user"."first_name..."."email" = \\\'hello5@gmail.com\\\') LIMIT 1 OFFSET 0;\',), **kwargs={})'
p368
sg91
S'execute'
p369
sasS'pyver'
p370
S'Python 2.7.14: /anaconda2/bin/python (prefix: /anaconda2)'
p371
sS'session'
p372
g63
(S's\x1a\x00\x00\x00<div><table></table></div>'
tRp373
sS'etype'
p374
S"<class 'sqlite3.OperationalError'>"
p375
sS'date'
p376
S'Tue Jun  5 17:14:12 2018'
p377
sS'response'
p378
g63
(S's4?\x00\x00<div><table><tr><td style="font-weight:bold;vertical-align:top;">body</td><td style="vertical-align:top;">:</td><td><div>&lt;cStringIO.StringO object at 0x10782adc0&gt;</div></td></tr><tr><td style="font-weight:bold;vertical-align:top;">cookies</td><td style="vertical-align:top;">:</td><td><div><table><tr><td style="font-weight:bold;vertical-align:top;">session_id_cs183project</td><td style="vertical-align:top;">:</td><td><div>6:8416535f-ec0f-4f10-9fdc-88b7570766b9<table><tr><td style="font-weight:bold;vertical-align:top;">comment</td><td style="vertical-align:top;">:</td><td><div></div></td></tr><tr><td style="font-weight:bold;vertical-align:top;">domain</td><td style="vertical-align:top;">:</td><td><div></div></td></tr><tr><td style="font-weight:bold;vertical-align:top;">expires</td><td style="vertical-align:top;">:</td><td><div></div></td></tr><tr><td style="font-weight:bold;vertical-align:top;">httponly</td><td style="vertical-align:top;">:</td><td><div></div></td></tr><tr><td style="font-weight:bold;vertical-align:top;">max-age</td><td style="vertical-align:top;">:</td><td><div></div></td></tr><tr><td style="font-weight:bold;vertical-align:top;">path</td><td style="vertical-align:top;">:</td><td><div>/</div></td></tr><tr><td style="font-weight:bold;vertical-align:top;">secure</td><td style="vertical-align:top;">:</td><td><div></div></td></tr><tr><td style="font-weight:bold;vertical-align:top;">version</td><td style="vertical-align:top;">:</td><td><div></div></td></tr></table></div></td></tr></table></div></td></tr><tr><td style="font-weight:bold;vertical-align:top;">delimiters</td><td style="vertical-align:top;">:</td><td><div><table><tr><td><div>{{</div></td></tr><tr><td><div>}}</div></td></tr></table></div></td></tr><tr><td style="font-weight:bold;vertical-align:top;">files</td><td style="vertical-align:top;">:</td><td><div><table></table></div></td></tr><tr><td style="font-weight:bold;vertical-align:top;">flash</td><td style="vertical-align:top;">:</td><td><div></div></td></tr><tr><td style="font-weight:bold;vertical-align:top;">form_label_separator</td><td style="vertical-align:top;">:</td><td><div></div></td></tr><tr><td style="font-weight:bold;vertical-align:top;">formstyle</td><td style="vertical-align:top;">:</td><td><div>bootstrap3_inline</div></td></tr><tr><td style="font-weight:bold;vertical-align:top;">generic_patterns</td><td style="vertical-align:top;">:</td><td><div><table><tr><td><div>*</div></td></tr></table></div></td></tr><tr><td style="font-weight:bold;vertical-align:top;">google_analytics_id</td><td style="vertical-align:top;">:</td><td><div>None</div></td></tr><tr><td style="font-weight:bold;vertical-align:top;">headers</td><td style="vertical-align:top;">:</td><td><div><table><tr><td style="font-weight:bold;vertical-align:top;">X-Powered-By</td><td style="vertical-align:top;">:</td><td><div>web2py</div></td></tr></table></div></td></tr><tr><td style="font-weight:bold;vertical-align:top;">logo</td><td style="vertical-align:top;">:</td><td><div><a class="navbar-brand" href="http://www.web2py.com/" id="web2py-logo"><b>web<span>2</span>py</b>&trade;&nbsp;</a></div></td></tr><tr><td style="font-weight:bold;vertical-align:top;">menu</td><td style="vertical-align:top;">:</td><td><div><table><tr><td><div><table><tr><td><div>Home</div></td></tr><tr><td><div>False</div></td></tr><tr><td><div>/cs183project/default/index</div></td></tr><tr><td><div><table></table></div></td></tr></table></div></td></tr><tr><td><div><table><tr><td><div>My Sites</div></td></tr><tr><td><div>False</div></td></tr><tr><td><div>/admin/default/site</div></td></tr></table></div></td></tr><tr><td><div><table><tr><td><div>This App</div></td></tr><tr><td><div>False</div></td></tr><tr><td><div>#</div></td></tr><tr><td><div><table><tr><td><div><table><tr><td><div>Design</div></td></tr><tr><td><div>False</div></td></tr><tr><td><div>/admin/default/design/cs183project</div></td></tr></table></div></td></tr><tr><td><div><li class="divider"></li></div></td></tr><tr><td><div><table><tr><td><div>Controller</div></td></tr><tr><td><div>False</div></td></tr><tr><td><div>/admin/default/edit/cs183project/controllers/default.py</div></td></tr></table></div></td></tr><tr><td><div><table><tr><td><div>View</div></td></tr><tr><td><div>False</div></td></tr><tr><td><div>/admin/default/edit/cs183project/views/default/user.html</div></td></tr></table></div></td></tr><tr><td><div><table><tr><td><div>DB Model</div></td></tr><tr><td><div>False</div></td></tr><tr><td><div>/admin/default/edit/cs183project/models/db.py</div></td></tr></table></div></td></tr><tr><td><div><table><tr><td><div>Menu Model</div></td></tr><tr><td><div>False</div></td></tr><tr><td><div>/admin/default/edit/cs183project/models/menu.py</div></td></tr></table></div></td></tr><tr><td><div><table><tr><td><div>Config.ini</div></td></tr><tr><td><div>False</div></td></tr><tr><td><div>/admin/default/edit/cs183project/private/appconfig.ini</div></td></tr></table></div></td></tr><tr><td><div><table><tr><td><div>Layout</div></td></tr><tr><td><div>False</div></td></tr><tr><td><div>/admin/default/edit/cs183project/views/layout.html</div></td></tr></table></div></td></tr><tr><td><div><table><tr><td><div>Stylesheet</div></td></tr><tr><td><div>False</div></td></tr><tr><td><div>/admin/default/edit/cs183project/static/css/web2py-bootstrap3.css</div></td></tr></table></div></td></tr><tr><td><div><table><tr><td><div>Database</div></td></tr><tr><td><div>False</div></td></tr><tr><td><div>/cs183project/appadmin/index</div></td></tr></table></div></td></tr><tr><td><div><table><tr><td><div>Errors</div></td></tr><tr><td><div>False</div></td></tr><tr><td><div>/admin/default/errors/cs183project</div></td></tr></table></div></td></tr><tr><td><div><table><tr><td><div>About</div></td></tr><tr><td><div>False</div></td></tr><tr><td><div>/admin/default/about/cs183project</div></td></tr></table></div></td></tr></table></div></td></tr></table></div></td></tr><tr><td><div><table><tr><td><div>web2py.com</div></td></tr><tr><td><div>False</div></td></tr><tr><td><div>#</div></td></tr><tr><td><div><table><tr><td><div><table><tr><td><div>Download</div></td></tr><tr><td><div>False</div></td></tr><tr><td><div>http://www.web2py.com/examples/default/download</div></td></tr></table></div></td></tr><tr><td><div><table><tr><td><div>Support</div></td></tr><tr><td><div>False</div></td></tr><tr><td><div>http://www.web2py.com/examples/default/support</div></td></tr></table></div></td></tr><tr><td><div><table><tr><td><div>Demo</div></td></tr><tr><td><div>False</div></td></tr><tr><td><div>http://web2py.com/demo_admin</div></td></tr></table></div></td></tr><tr><td><div><table><tr><td><div>Quick Examples</div></td></tr><tr><td><div>False</div></td></tr><tr><td><div>http://web2py.com/examples/default/examples</div></td></tr></table></div></td></tr><tr><td><div><table><tr><td><div>FAQ</div></td></tr><tr><td><div>False</div></td></tr><tr><td><div>http://web2py.com/AlterEgo</div></td></tr></table></div></td></tr><tr><td><div><table><tr><td><div>Videos</div></td></tr><tr><td><div>False</div></td></tr><tr><td><div>http://www.web2py.com/examples/default/videos/</div></td></tr></table></div></td></tr><tr><td><div><table><tr><td><div>Free Applications</div></td></tr><tr><td><div>False</div></td></tr><tr><td><div>http://web2py.com/appliances</div></td></tr></table></div></td></tr><tr><td><div><table><tr><td><div>Plugins</div></td></tr><tr><td><div>False</div></td></tr><tr><td><div>http://web2py.com/plugins</div></td></tr></table></div></td></tr><tr><td><div><table><tr><td><div>Recipes</div></td></tr><tr><td><div>False</div></td></tr><tr><td><div>http://web2pyslices.com/</div></td></tr></table></div></td></tr></table></div></td></tr></table></div></td></tr><tr><td><div><table><tr><td><div>Documentation</div></td></tr><tr><td><div>False</div></td></tr><tr><td><div>#</div></td></tr><tr><td><div><table><tr><td><div><table><tr><td><div>Online book</div></td></tr><tr><td><div>False</div></td></tr><tr><td><div>http://www.web2py.com/book</div></td></tr></table></div></td></tr><tr><td><div><li class="divider"></li></div></td></tr><tr><td><div><table><tr><td><div>Preface</div></td></tr><tr><td><div>False</div></td></tr><tr><td><div>http://www.web2py.com/book/default/chapter/00</div></td></tr></table></div></td></tr><tr><td><div><table><tr><td><div>Introduction</div></td></tr><tr><td><div>False</div></td></tr><tr><td><div>http://www.web2py.com/book/default/chapter/01</div></td></tr></table></div></td></tr><tr><td><div><table><tr><td><div>Python</div></td></tr><tr><td><div>False</div></td></tr><tr><td><div>http://www.web2py.com/book/default/chapter/02</div></td></tr></table></div></td></tr><tr><td><div><table><tr><td><div>Overview</div></td></tr><tr><td><div>False</div></td></tr><tr><td><div>http://www.web2py.com/book/default/chapter/03</div></td></tr></table></div></td></tr><tr><td><div><table><tr><td><div>The Core</div></td></tr><tr><td><div>False</div></td></tr><tr><td><div>http://www.web2py.com/book/default/chapter/04</div></td></tr></table></div></td></tr><tr><td><div><table><tr><td><div>The Views</div></td></tr><tr><td><div>False</div></td></tr><tr><td><div>http://www.web2py.com/book/default/chapter/05</div></td></tr></table></div></td></tr><tr><td><div><table><tr><td><div>Database</div></td></tr><tr><td><div>False</div></td></tr><tr><td><div>http://www.web2py.com/book/default/chapter/06</div></td></tr></table></div></td></tr><tr><td><div><table><tr><td><div>Forms and Validators</div></td></tr><tr><td><div>False</div></td></tr><tr><td><div>http://www.web2py.com/book/default/chapter/07</div></td></tr></table></div></td></tr><tr><td><div><table><tr><td><div>Email and SMS</div></td></tr><tr><td><div>False</div></td></tr><tr><td><div>http://www.web2py.com/book/default/chapter/08</div></td></tr></table></div></td></tr><tr><td><div><table><tr><td><div>Access Control</div></td></tr><tr><td><div>False</div></td></tr><tr><td><div>http://www.web2py.com/book/default/chapter/09</div></td></tr></table></div></td></tr><tr><td><div><table><tr><td><div>Services</div></td></tr><tr><td><div>False</div></td></tr><tr><td><div>http://www.web2py.com/book/default/chapter/10</div></td></tr></table></div></td></tr><tr><td><div><table><tr><td><div>Ajax Recipes</div></td></tr><tr><td><div>False</div></td></tr><tr><td><div>http://www.web2py.com/book/default/chapter/11</div></td></tr></table></div></td></tr><tr><td><div><table><tr><td><div>Components and Plugins</div></td></tr><tr><td><div>False</div></td></tr><tr><td><div>http://www.web2py.com/book/default/chapter/12</div></td></tr></table></div></td></tr><tr><td><div><table><tr><td><div>Deployment Recipes</div></td></tr><tr><td><div>False</div></td></tr><tr><td><div>http://www.web2py.com/book/default/chapter/13</div></td></tr></table></div></td></tr><tr><td><div><table><tr><td><div>Other Recipes</div></td></tr><tr><td><div>False</div></td></tr><tr><td><div>http://www.web2py.com/book/default/chapter/14</div></td></tr></table></div></td></tr><tr><td><div><table><tr><td><div>Helping web2py</div></td></tr><tr><td><div>False</div></td></tr><tr><td><div>http://www.web2py.com/book/default/chapter/15</div></td></tr></table></div></td></tr><tr><td><div><table><tr><td><div>Buy web2py\'s book</div></td></tr><tr><td><div>False</div></td></tr><tr><td><div>http://stores.lulu.com/web2py</div></td></tr></table></div></td></tr></table></div></td></tr></table></div></td></tr><tr><td><div><table><tr><td><div>Community</div></td></tr><tr><td><div>False</div></td></tr><tr><td><div>None</div></td></tr><tr><td><div><table><tr><td><div><table><tr><td><div>Groups</div></td></tr><tr><td><div>False</div></td></tr><tr><td><div>http://www.web2py.com/examples/default/usergroups</div></td></tr></table></div></td></tr><tr><td><div><table><tr><td><div>Twitter</div></td></tr><tr><td><div>False</div></td></tr><tr><td><div>http://twitter.com/web2py</div></td></tr></table></div></td></tr><tr><td><div><table><tr><td><div>Live Chat</div></td></tr><tr><td><div>False</div></td></tr><tr><td><div>http://webchat.freenode.net/?channels=web2py</div></td></tr></table></div></td></tr></table></div></td></tr></table></div></td></tr></table></div></td></tr><tr><td style="font-weight:bold;vertical-align:top;">meta</td><td style="vertical-align:top;">:</td><td><div><table><tr><td style="font-weight:bold;vertical-align:top;">author</td><td style="vertical-align:top;">:</td><td><div>Your Name &lt;you@example.com&gt;</div></td></tr><tr><td style="font-weight:bold;vertical-align:top;">description</td><td style="vertical-align:top;">:</td><td><div>a cool new app</div></td></tr><tr><td style="font-weight:bold;vertical-align:top;">generator</td><td style="vertical-align:top;">:</td><td><div>Web2py Web Framework</div></td></tr><tr><td style="font-weight:bold;vertical-align:top;">keywords</td><td style="vertical-align:top;">:</td><td><div><table><tr><td><div>web2py</div></td></tr><tr><td><div>python</div></td></tr><tr><td><div>framework</div></td></tr></table></div></td></tr></table></div></td></tr><tr><td style="font-weight:bold;vertical-align:top;">models_to_run</td><td style="vertical-align:top;">:</td><td><div><table><tr><td><div>^\\w+\\.py$</div></td></tr><tr><td><div>^default/\\w+\\.py$</div></td></tr><tr><td><div>^default/user/\\w+\\.py$</div></td></tr></table></div></td></tr><tr><td style="font-weight:bold;vertical-align:top;">postprocessing</td><td style="vertical-align:top;">:</td><td><div><table></table></div></td></tr><tr><td style="font-weight:bold;vertical-align:top;">session_client</td><td style="vertical-align:top;">:</td><td><div>127.0.0.1</div></td></tr><tr><td style="font-weight:bold;vertical-align:top;">session_cookie_compression_level</td><td style="vertical-align:top;">:</td><td><div>None</div></td></tr><tr><td style="font-weight:bold;vertical-align:top;">session_cookie_expires</td><td style="vertical-align:top;">:</td><td><div>None</div></td></tr><tr><td style="font-weight:bold;vertical-align:top;">session_data_name</td><td style="vertical-align:top;">:</td><td><div>session_data_cs183project</div></td></tr><tr><td style="font-weight:bold;vertical-align:top;">session_db_record_id</td><td style="vertical-align:top;">:</td><td><div>6L</div></td></tr><tr><td style="font-weight:bold;vertical-align:top;">session_db_table</td><td style="vertical-align:top;">:</td><td><div>&lt;Table web2py_session_cs183project (id, locked, client_ip, created_datetime, modified_datetime, unique_key, session_data)&gt;</div></td></tr><tr><td style="font-weight:bold;vertical-align:top;">session_db_unique_key</td><td style="vertical-align:top;">:</td><td><div>8416535f-ec0f-4f10-9fdc-88b7570766b9</div></td></tr><tr><td style="font-weight:bold;vertical-align:top;">session_hash</td><td style="vertical-align:top;">:</td><td><div>ef10bd4c8f0ec4eabbb64d911efa49e4</div></td></tr><tr><td style="font-weight:bold;vertical-align:top;">session_id</td><td style="vertical-align:top;">:</td><td><div>6:8416535f-ec0f-4f10-9fdc-88b7570766b9</div></td></tr><tr><td style="font-weight:bold;vertical-align:top;">session_id_name</td><td style="vertical-align:top;">:</td><td><div>session_id_cs183project</div></td></tr><tr><td style="font-weight:bold;vertical-align:top;">session_masterapp</td><td style="vertical-align:top;">:</td><td><div>cs183project</div></td></tr><tr><td style="font-weight:bold;vertical-align:top;">session_new</td><td style="vertical-align:top;">:</td><td><div>False</div></td></tr><tr><td style="font-weight:bold;vertical-align:top;">session_storage_type</td><td style="vertical-align:top;">:</td><td><div>db</div></td></tr><tr><td style="font-weight:bold;vertical-align:top;">status</td><td style="vertical-align:top;">:</td><td><div>200</div></td></tr><tr><td style="font-weight:bold;vertical-align:top;">subtitle</td><td style="vertical-align:top;">:</td><td><div></div></td></tr><tr><td style="font-weight:bold;vertical-align:top;">title</td><td style="vertical-align:top;">:</td><td><div>Cs183Project</div></td></tr><tr><td style="font-weight:bold;vertical-align:top;">view</td><td style="vertical-align:top;">:</td><td><div>default/user.html</div></td></tr></table></div>'
tRp379
sS'locals'
p380
(dp381
S'handlers'
p382
S'[<pydal.helpers.classes.TimingHandler object>]'
p383
sS'self'
p384
S'<pydal.adapters.sqlite.SQLite object>'
p385
sg48
S'(\'SELECT "auth_user"."id", "auth_user"."first_name..."."email" = \\\'hello5@gmail.com\\\') LIMIT 1 OFFSET 0;\',)'
p386
sS'handler'
p387
S'<pydal.helpers.classes.TimingHandler object>'
p388
sS'command'
p389
S'\'SELECT "auth_user"."id", "auth_user"."first_name..."."email" = \\\'hello5@gmail.com\\\') LIMIT 1 OFFSET 0;\''
p390
sS'kwargs'
p391
g21
sssS'traceback'
p392
S'Traceback (most recent call last):\n  File "/Users/leonpham/Documents/UCSC/CMPS183/web2py/gluon/restricted.py", line 219, in restricted\n    exec(ccode, environment)\n  File "/Users/leonpham/Documents/UCSC/CMPS183/web2py/applications/cs183project/controllers/default.py", line 96, in <module>\n  File "/Users/leonpham/Documents/UCSC/CMPS183/web2py/gluon/globals.py", line 419, in <lambda>\n    self._caller = lambda f: f()\n  File "/Users/leonpham/Documents/UCSC/CMPS183/web2py/applications/cs183project/controllers/default.py", line 41, in user\n    return dict(form=auth())\n  File "/Users/leonpham/Documents/UCSC/CMPS183/web2py/gluon/tools.py", line 1925, in __call__\n    return getattr(self, args[0])()\n  File "/Users/leonpham/Documents/UCSC/CMPS183/web2py/gluon/tools.py", line 2704, in login\n    user = table_user(**{username: entered_username})\n  File "/Users/leonpham/Documents/UCSC/CMPS183/web2py/gluon/packages/dal/pydal/objects.py", line 585, in __call__\n    orderby_on_limitby=False).first()\n  File "/Users/leonpham/Documents/UCSC/CMPS183/web2py/gluon/packages/dal/pydal/objects.py", line 2250, in select\n    return adapter.select(self.query, fields, attributes)\n  File "/Users/leonpham/Documents/UCSC/CMPS183/web2py/gluon/packages/dal/pydal/adapters/sqlite.py", line 82, in select\n    return super(SQLite, self).select(query, fields, attributes)\n  File "/Users/leonpham/Documents/UCSC/CMPS183/web2py/gluon/packages/dal/pydal/adapters/base.py", line 762, in select\n    return self._select_aux(sql, fields, attributes, colnames)\n  File "/Users/leonpham/Documents/UCSC/CMPS183/web2py/gluon/packages/dal/pydal/adapters/base.py", line 718, in _select_aux\n    rows = self._select_aux_execute(sql)\n  File "/Users/leonpham/Documents/UCSC/CMPS183/web2py/gluon/packages/dal/pydal/adapters/base.py", line 712, in _select_aux_execute\n    self.execute(sql)\n  File "/Users/leonpham/Documents/UCSC/CMPS183/web2py/gluon/packages/dal/pydal/adapters/__init__.py", line 67, in wrap\n    return f(*args, **kwargs)\n  File "/Users/leonpham/Documents/UCSC/CMPS183/web2py/gluon/packages/dal/pydal/adapters/base.py", line 412, in execute\n    rv = self.cursor.execute(command, *args[1:], **kwargs)\nOperationalError: no such column: auth_user.picture\n'
p393
s.