(dp1
S'output'
p2
S"<type 'exceptions.NameError'> name 'value' is not defined"
p3
sS'layer'
p4
S'/Users/EmmyB/Desktop/web2py/applications/cs183project/views/default/profile.html'
p5
sS'code'
p6
S'response.write(\'<html>\\n  <head>\\n    <meta charset="utf-8">\\n    <meta http-equiv="X-UA-Compatible" content="IE=edge,chrome=1">\\n    <meta name="viewport" content="width=device-width, initial-scale=1.0" />\\n    <meta name="apple-mobile-web-app-capable" content="yes" />\\n    <link href="\', escape=False)\nresponse.write(URL(\'static\',\'css/stupid.css\'))\nresponse.write(\'" rel="stylesheet" type="text/css"/>\\n    <link href="\', escape=False)\nresponse.write(URL(\'static\',\'css/custom.css\'))\nresponse.write(\'" rel="stylesheet" type="text/css"/>\\n    <link href="\', escape=False)\nresponse.write(URL(\'static\',\'css/calendar.css\'))\nresponse.write(\'" rel="stylesheet" type="text/css"/>\\n    <link href="\', escape=False)\nresponse.write(URL(\'static\',\'css/web2py.css\'))\nresponse.write(\'" rel="stylesheet" type="text/css"/>\\n    <link href="\', escape=False)\nresponse.write(URL(\'static\',\'css/myapp.css\'))\nresponse.write(\'" rel="stylesheet" type="text/css"/>\\n    <link rel="stylesheet" href="\', escape=False)\nresponse.write(URL(\'static\', \'font-awesome-4.6.3/css/font-awesome.min.css\'))\nresponse.write(\'">\\n    \', escape=False)\nresponse.write(\'<script type="text/javascript"><!--\\n    // These variables are used by the web2py_ajax_init function in web2py_ajax.js (which is loaded below).\\n    var w2p_ajax_confirm_message = "\', escape=False)\nresponse.write(T(\'Are you sure you want to delete this object?\'))\nresponse.write(\'";\\n    var w2p_ajax_disable_with_message = "\', escape=False)\nresponse.write(T(\'Working...\'))\nresponse.write(\'";\\n    var w2p_ajax_date_format = "\', escape=False)\nresponse.write(T(\'%Y-%m-%d\'))\nresponse.write(\'";\\n    var w2p_ajax_datetime_format = "\', escape=False)\nresponse.write(T(\'%Y-%m-%d %H:%M:%S\'))\nresponse.write(\'";\\n    var ajax_error_500 = \\\'\', escape=False)\nresponse.write(T.M(\'An error occured, please [[reload %s]] the page\') % URL(args=request.args, vars=request.get_vars))\nresponse.write("\'\\n    //--></script>\\n", escape=False)\nresponse.files.insert(0,URL(\'static\',\'js/jquery.js\'))\nresponse.files.insert(1,URL(\'static\',\'css/calendar.css\'))\nresponse.files.insert(2,URL(\'static\',\'js/calendar.js\'))\nresponse.files.insert(3,URL(\'static\',\'js/web2py.js\'))\nresponse.include_meta()\nresponse.include_files()\nresponse.write(\'\\n\', escape=False)\nresponse.write(\'\\n  </head>\\n  <body class="black">\\n    \', escape=False)\nif response.flash:\n    response.write(\'\\n    <div class="w2p_flash">\\n      \', escape=False)\n    response.write(response.flash)\n    response.write(\'\\n    </div>\\n    \', escape=False)\n    pass\nresponse.write(\'\\n    <header class="black padded">\\n      <div class="container middle max900">\\n        <div class="fill middle">\\n          <label class="ham padded fa fa-bars" for="menu"></label>\\n          <div class="burger accordion">\\n            <input type="checkbox" id="menu"/>\\n            \', escape=False)\nresponse.write(MENU(response.menu,_class=\'menu\'))\nresponse.write(\'\\n            <ul class="menu right">\\n              <li>\\n                \', escape=False)\nresponse.write(auth.navbar(mode=\'dropdown\'))\nresponse.write(\'\\n              </li>\\n            </ul>\\n          </div>\\n        </div>\\n      </div>\\n    </header>\\n    <main class="white">\\n        \', escape=False)\nresponse.write(\'\\n\', escape=False)\nresponse.write(\'\\n<script src="//ajax.googleapis.com/ajax/libs/jquery/3.2.1/jquery.min.js"></script>\\n<script src="//d79i1fxsrar4t.cloudfront.net/jquery.liveaddress/5.1/jquery.liveaddress.min.js"></script>\\n<script src="\', escape=False)\nresponse.write(URL(\'static\', \'js/vue.js\'))\nresponse.write(\'"></script>\\n<script src="https://unpkg.com/axios/dist/axios.min.js"></script>\\n<link rel="stylesheet" href="https://use.fontawesome.com/releases/v5.0.13/css/all.css" integrity="sha384-DNOHZ68U8hZfKXOrtjWvjxusGo9WQnrNx2sqG0tfsghAvtVlRW3tvkXWZh58N9jp" crossorigin="anonymous">\\n\\n\\n<script>\\n      var add_address_url = "\', escape=False)\nresponse.write(URL(\'api\', \'insert_new_address\', user_signature=False))\nresponse.write(\'";\\n      var get_property_types_url = "\', escape=False)\nresponse.write(URL(\'api\', \'get_property_types\', user_signature=False))\nresponse.write(\'";\\n      var add_property_url = "\', escape=False)\nresponse.write(URL(\'api\', \'add_property\', user_signature=True))\nresponse.write(\'";\\n      var get_owned_properties_url = "\', escape=False)\nresponse.write(URL(\'api\', \'get_owned_properties\', user_signature=True))\nresponse.write(\'";\\n      var add_listing_url = "\', escape=False)\nresponse.write(URL(\'api\', \'add_listing\', user_signature=True))\nresponse.write(\'";\\n      var get_liked_properties_url = "\', escape=False)\nresponse.write(URL(\'default\', \'get_liked_properties\'))\nresponse.write(\'";\\n\\n\\n</script>\\n\\n<script>\\n    var users_url = "\', escape=False)\nresponse.write(URL(\'groups\', \'get_users\', user_signature=True))\nresponse.write(\'";\\n    var search_users_url = "\', escape=False)\nresponse.write(URL(\'groups\', \'search_users\', user_signature=True))\nresponse.write(\'";\\n    var groups_url = "\', escape=False)\nresponse.write(URL(\'groups\', \'get_groups\', user_signature=True))\nresponse.write(\'";\\n    var members_url = "\', escape=False)\nresponse.write(URL(\'groups\', \'get_members\', user_signature=True))\nresponse.write(\'";\\n    var add_group_url = "\', escape=False)\nresponse.write(URL(\'groups\', \'add_group\', user_signature=True))\nresponse.write(\'";\\n    var toggle_is_editing = "\', escape=False)\nresponse.write(URL(\'groups\', \'is_editing\', user_signature=True))\nresponse.write(\'";\\n    var add_member_url = "\', escape=False)\nresponse.write(URL(\'groups\', \'add_member\', user_signature=True))\nresponse.write(\'";\\n    var del_member_url = "\', escape=False)\nresponse.write(URL(\'groups\', \'del_member\', user_signature=True))\nresponse.write(\'";\\n    var delete_group_url = "\', escape=False)\nresponse.write(URL(\'groups\', \'delete_group\', user_signature=True))\nresponse.write(\'";\\n    var get_insertion_url = "\', escape=False)\nresponse.write(URL(\'groups\', \'get_insertion_id\', user_signature=True))\nresponse.write(\'";\\n    var clean_members_url = "\', escape=False)\nresponse.write(URL(\'groups\', \'clean_members\', user_signature=True))\nresponse.write(\'"\\n</script>\\n\\n\', escape=False)\nresponse.write(\'\\n\\n\\n<!-- Edit the HTML for profile page here -->\\n\\n<div id="profile">\\n\\n<div id="vue-div" class="main_content">\\n    <div class="container compressible">\\n\\n        <div class="left_side container quarter max900">\\n            <div class="user_info padded ">\\n            \', escape=False)\nif auth.user is not None:\n    response.write(\'\\n                <!--This the statically served default profile picture -->\\n                \', escape=False)\n    response.write(A(IMG(_src=URL(\'static/images\', \'default_user.jpg\'), _alt="default user image")))\n    response.write(\'\\n            \', escape=False)\nelse:\n    response.write(\'\\n                <!--This should be the users uploaded profile picture.... if it ever works -->\\n                \', escape=False)\n    response.write(A(IMG(_src=URL(\'default\', \'download\', args=pic), _alt=" user image")))\n    response.write(\'\\n            \', escape=False)\n    pass\nresponse.write(\'\\n\\n                <div class="user_text">\\n                    <h3>\', escape=False)\nresponse.write(auth.user.first_name)\nresponse.write(\' \', escape=False)\nresponse.write(auth.user.last_name)\nresponse.write(\'</h3>\\n                    <h6>My Rentals</h6>\\n                    <h6>My Listings</h6>\\n                    <h6>Interesting Properties</h6>\\n\\n\\t\\t\\t\\t\\t<div class="add_property">\\n\\n            \\t\\t</div>\\n\\t\\t\\t\\t</div>\\n\\n            </div>\\n            <div class="button_list container">\\n                <div class="add_btn half">\\n                     <button v-if="!is_adding_property" class="rounded" v-on:click="add_property_button()" >\\n                        <i class="fa fa-plus"></i>\\n                        Add Property\\n                     </button>\\n                     <button v-if="is_adding_property" class="rounded" v-on:click="add_property_button()" >\\n                        <i class="fa fa-close"></i>\\n                        Close\\n                    </button>\\n                </div>\\n                <div class="half group_btn">\\n                    <button v-if="!is_adding_group" class="rounded " v-on:click="add_group_button()">\\n                            <i class="fa fa-plus"></i> Create Group\\n                    </button>\\n                </div>\\n            </div>\\n\\n\\n        </div>\\n\\n        <div class="right_side container threequarters max900 compressible">\\n            <div class="add_property_div padded container" id="add_property_div" style="display:none">\\n                <h4>Add a new property </h4>\\n                <div v-if="add_property_page == 0">\\n                    <h5>What is the address?</h5>\\n                    <form>\\n                        Street: <input type="text" name="street" v-model="form_street" placeholder="Street..."><br>\\n                        City: <input type="text" name="city" v-model="form_city" placeholder="City..."><br>\\n                        Zip Code: <input type="text" name="zip" v-model="form_zip" placeholder="Zip code..."><br>\\n                        State: <input type="text" name="state" v-model="form_state_" placeholder="City..."><br>\\n                    </form>\\n\\n                </div>\\n                <div v-if="add_property_page == 1">\\n                    <h5>Tell us about the property</h5>\\n                    <form>\\n                        <label>Property Type </label><br>\\n                            <select class="drop_down_field"  name="p_type" v-model="p_type">\\n                                <!--For this one, I need to get the .id of the selected value\\n                                    But I think I can just grab it before the post request\\n                                 -->\\n                                <option v-for="p in property_types">${p.p_type}</option>\\n                            </select>\\n                        <label>Number of Bedrooms </label><br>\\n                        <select class="drop_down_field" name="num_bedrooms" v-model="num_bedrooms" >\\n                            <option v-for="n in 10" >${n}</option>\\n                        </select>\\n                        <div class="container">\\n\\n                           <div class="half">\\n                                <label>Full Bathrooms </label><br>\\n                                    <select class="drop_down_field" name="num_fullbaths" v-model="num_fullbaths">\\n                                        <option v-for="n in 10" >${n}</option>\\n                                    </select>\\n                            </div>\\n                            <div class="half">\\n                                <label>Half Bathrooms </label><br>\\n                                    <select class="drop_down_field" name="num_halfbaths" v-model="num_halfbaths">\\n                                        <option v-for="n in 10">${n}</option>\\n                                    </select>\\n                            </div>\\n                        </div>\\n\\n                    </form>\\n                </div>\\n                <div class="button_bar padded">\\n                    <span v-if="add_property_page == last_add_property_page">\\n                        <button v-on:click="prev_page">\\n                            <i class="fas fa-arrow-left"></i>\\n                        </button>\\n                        <button v-on:click="add_property">\\n                            <i class="far fa-share-square"></i>\\n                            Submit\\n                        </button>\\n                    </span>\\n                    <span v-if="add_property_page == 0">\\n                        <button v-on:click="next_page">\\n                            <i class="fas fa-arrow-right"></i>\\n                        </button>\\n                    </span>\\n\\n                </div>\\n\\n            </div>\\n\\n            <div class="add_listing_div padded container" id="add_listing_div" style="display:none">\\n                <h4>List Property</h4>\\n                <button class="right" v-on:click="add_listing_button(listing_idx)"><i class="fa fa-times"></i> Cancel</button>\\n                <h6>Property</h6>\\n                <div v-for:="(value, key) in owned_properities[listing_idx]">\\n                    {key}}: \', escape=False)\nvalue\nresponse.write(\'\\n                </div>\\n                <div v-if="add_listing_page == 0">\\n                    <h5> Description </h5>\\n                    <form>\\n                        Max Occupants:<select class="drop_down_field" v-model="form_max_occ"><option v-for="n in 10" >${n}</option></select>\\n                        Rent: <input type="number" placeholder="$ 0.00/mo" v-model="form_rent">\\n                        start date: <input type="date" v-model="form_start_date">\\n                        end date: <input type="date" v-model="form_end_date">\\n                    </form>\\n                    <button v-on:click="next_list_page()">\\n                        <i class="fa fa-arrow-right"></i>\\n                    </button>\\n                </div>\\n                <div v-if="add_listing_page == 1">\\n                    <h5> Review Listing </h5>\\n                    <div class="container padded">\\n                        <div class="half">\\n                            <h6>Property</h6>\\n                            <p>Street:</p>\\n                            <p>City:</p>\\n                            <p>Zip Code:</p>\\n                            <p>Sate:</p>\\n                        </div>\\n                        <div class="half">\\n                            <h6> Details </h6>\\n                            <p>Max Occupants</p>\\n                            <p>Rent </p>\\n                            <p>Start Date: </p>\\n                            <p>End Date </p>\\n                        </div>\\n                    </div>\\n                    <span>\\n                        <button v-on:click="prev_list_page()">\\n                            <i class="fa fa-arrow-left"></i>\\n                        </button>\\n                        <button>\\n                            <i class="fa fa-paper-plane"></i> Post\\n                        </button>\\n                    </span>\\n                </div>\\n            </div>\\n\\n            <div class="property_info ">\\n                <div class="right_side_banner">\\n                    <h4>My Properties</h4>\\n                </div>\\n\\n                <div class="owned_properties container padded" v-for="p in owned_properties">\\n                    <div class="padded half">\\n                        <h6>Street:</h6><p>${p.street}</p>\\n                        <h6>City:</h6> <p>${p.city}</p>\\n                        <h6>Zip Code:</h6> <p>${p.zip}</p>\\n                        <h6>Sate:</h6><p>${p.state_}</p>\\n                    </div>\\n                    <div class="padded half">\\n                        <div class="right">\\n                            <button v-on:click="add_listing_button(p._idx)">\\n                                <i class="fa fa-paper-plane"></i>  Post\\n                            </button>\\n                        </div>\\n                        <h6>Property Type</h6><p>${p.property_type}</p>\\n                        <h6>Number of Bedrooms</h6> <p>${p.num_bedrooms}</p>\\n                        <h6>Number of full bathrooms</h6><p>${p.num_fullbaths}</p>\\n                        <h6>Number of half bathrooms</h6> <p>${p.num_halfbaths}</p>\\n                    </div>\\n                </div>\\n            </div>\\n\\n            <div class="group_info">\\n                <div class="right_side_banner">\\n                    <h4>Groups</h4>\\n                </div>\\n                <!--<div class="my_groups"> -->\\n                    <div class="one_group container" v-for="group in groups">\\n                        <div class="container padded">\\n                            <div class="quarter">\\n                                <h6 class="">${group.group_name}</h6>\\n                            </div>\\n                            <div class="button_bar threequarters padded right">\\n                                <button class="btn rounded">\\n                                        <i class="fa fa-plus"></i>\\n                                </button>\\n                                <button v-if="!group.is_editing" class="btn rounded" v-on:click="edit_group_button(group.group_id)">\\n                                    <i class="fa fa-edit"></i>\\n                                </button>\\n                                <span v-if="group.is_editing" class="button_list right">\\n\\n                                    <button class="btn rounded delete" v-on:click="delete_group(group.group_id)">\\n                                        <i class="fa fa-trash"></i>\\n                                    </button>\\n                                    <button class="btn rounded" v-on:click="cancel_edit_group(group.group_id)">\\n                                        <i class="fa fa-times"></i>\\n                                    </button>\\n                                </span>\\n\\n\\n\\n                            </div>\\n\\n                        </div>\\n                        <div class="padded" id="member_list">\\n                            <table class="members">\\n                                <thead>\\n                                    <th>Members</th>\\n                                </thead>\\n                                <tbody >\\n                                    <tr v-for="mem in group.group_members">\\n                                        <td>${mem.user_email}</td>\\n                                    </tr>\\n                                </tbody>\\n                            </table>\\n                        </div>\\n\\n                    </div>\\n                <!--</div> -->\\n\\n                <div v-if="is_adding_group" class="group_search padded">\\n                    <span class="padded right">\\n                        <button v-if="is_adding_group" class="btn padded rounded" v-on:click="submit_group_button()" >\\n                            <i class="fa fa-plus"></i> Submit\\n                        </button>\\n                        <button v-if="is_adding_group" class="btn padded rounded" v-on:click="cancel_add_group()">\\n                            <i class="fa fa-times"></i> Cancel\\n                        </button>\\n                    </span>\\n                    <h5 class="title"> New Group </h5>\\n                    <div v-if="is_adding_group" class="members">\\n                        <form class="padded">\\n                            <input class="string" v-model="form_name" placeholder="Enter your Group Name" type="text">\\n                        </form>\\n                        <div class="padded">\\n                            <table class="member_table padded">\\n                                <thead>\\n                                    <th>Members</th>\\n                                    <th></th>\\n                                    <th></th>\\n                                </thead>\\n                                <tbody>\\n                                    <tr v-for="mem in members">\\n                                        <td>\\n                                        \', escape=False)\nresponse.write(A(IMG(_src=URL(\'static/images\', \'default_user.jpg\'), _alt="default user image")))\nresponse.write(\'\\n                                        </td>\\n                                        <td>${mem.first_name} ${mem.last_name}</td>\\n                                        <td><i class="fa fa-trash btn" v-on:click="remove_from_group(mem, mem._idx)"></i></td>\\n                                    </tr>\\n                                </tbody>\\n                            </table>\\n                        </div>\\n                    </div>\\n                    <h5 class="title">Add Groupmates</h5>\\n                    <div class="padded">\\n                        <form class="padded">\\n                            <input class="string" v-model="form_user_search" placeholder="Search" type="text">\\n                        </form>\\n                        <span class="padded">\\n                            <button class="btn padded rounded" v-on:click="search_user()">\\n                                <i class="fa fa-search"></i>\\n                            </button>\\n                            <button class="btn padded rounded" v-on:click="clear_user_button()">\\n                                <i class="fa fa-times"></i>\\n                            </button>\\n                        </span>\\n                        <table class="user_table">\\n                            <thead>\\n                                <tr>\\n                                    <th>Photo</th>\\n                                    <th>User</th>\\n                                    <th>add ?</th>\\n                                </tr>\\n                            </thead>\\n                            <tbody>\\n                                <tr v-for="usr in users">\\n                                    <td>${usr.picture}</td>\\n                                    <td>${usr.first_name} ${usr.last_name}</td>\\n                                    <td><i class="fa fa-plus btn" v-on:click="add_to_group(usr, usr._idx)"></i></td>\\n                                </tr>\\n                            </tbody>\\n                        </table>\\n                        <div v-if="has_more" class="show_more">\\n                            <button class="btn btn-default rounded" v-on:click="get_more()">\\n                                <i class="fa fa-ellipsis-h"></i> Load more\\n                            </button>\\n                        </div>\\n                    </div>\\n                </div>\\n            </div>\\n        </div>\\n\\n    </div>\\n    </div>\\n    </div>\\n</div>\\n\\n<script src="\', escape=False)\nresponse.write(URL(\'static\', \'js/default_profile.js\'))\nresponse.write(\'"></script>\', escape=False)\nresponse.write(\'\\n    </main>\\n    <footer class="black">\\n      <div class="silver center padded social">\\n        <a class="fa fa-facebook" href="https://www.facebook.com/sharer/sharer.php?u={url}"></a>\\n        <a class="fa fa-twitter" href="https://twitter.com/home?status={url}"></a>\\n        <a class="fa fa-google" href="https://plus.google.com/share?url={url}"></a>\\n      </div>\\n      <div class="container padded max900">\\n        <div class="fill">\\n          Copyright @ 2016\\n        </div>\\n      </div>\\n    </footer>\\n  </body>\\n  <script src="\', escape=False)\nresponse.write(URL(\'static\',\'js/marked.min.js\'))\nresponse.write(\'"></script>\\n  <script src="\', escape=False)\nresponse.write(URL(\'static\',\'js/vue.min.js\'))\nresponse.write(\'"></script>\\n  \', escape=False)\nresponse.write("\\n  <script>\\n    jQuery(\'.social a\').each(function(){var t=jQuery(this); t.attr(\'href\',t.attr(\'href\').replace(\'{url}\',encodeURIComponent(window.location.href)));});\\n  </script>\\n</html>\\n", escape=False)'
p7
sS'snapshot'
p8
(dp9
S'exception'
p10
(dp11
S'__getslice__'
p12
S"<method-wrapper '__getslice__' of exceptions.NameError object>"
p13
sS'__str__'
p14
S"<method-wrapper '__str__' of exceptions.NameError object>"
p15
sS'__reduce__'
p16
S'<built-in method __reduce__ of exceptions.NameError object>'
p17
sS'__dict__'
p18
S'{}'
p19
sS'message'
p20
S'"name \'value\' is not defined"'
p21
sS'__sizeof__'
p22
S'<built-in method __sizeof__ of exceptions.NameError object>'
p23
sS'__init__'
p24
S"<method-wrapper '__init__' of exceptions.NameError object>"
p25
sS'__setattr__'
p26
S"<method-wrapper '__setattr__' of exceptions.NameError object>"
p27
sS'__reduce_ex__'
p28
S'<built-in method __reduce_ex__ of exceptions.NameError object>'
p29
sS'__new__'
p30
S'<built-in method __new__ of type object>'
p31
sS'__format__'
p32
S'<built-in method __format__ of exceptions.NameError object>'
p33
sS'__class__'
p34
S"<type 'exceptions.NameError'>"
p35
sS'__doc__'
p36
S"'Name not found globally.'"
p37
sS'__getitem__'
p38
S"<method-wrapper '__getitem__' of exceptions.NameError object>"
p39
sS'__setstate__'
p40
S'<built-in method __setstate__ of exceptions.NameError object>'
p41
sS'__getattribute__'
p42
S"<method-wrapper '__getattribute__' of exceptions.NameError object>"
p43
sS'args'
p44
S'("name \'value\' is not defined",)'
p45
sS'__subclasshook__'
p46
S'<built-in method __subclasshook__ of type object>'
p47
sS'__unicode__'
p48
S'<built-in method __unicode__ of exceptions.NameError object>'
p49
sS'__delattr__'
p50
S"<method-wrapper '__delattr__' of exceptions.NameError object>"
p51
sS'__repr__'
p52
S"<method-wrapper '__repr__' of exceptions.NameError object>"
p53
sS'__hash__'
p54
S"<method-wrapper '__hash__' of exceptions.NameError object>"
p55
ssS'evalue'
p56
S"name 'value' is not defined"
p57
sS'request'
p58
cgluon.html
XML_unpickle
p59
(S's\x04\xc9\x00\x00<div><table><tr><td style="font-weight:bold;vertical-align:top;">ajax</td><td style="vertical-align:top;">:</td><td><div>False</div></td></tr><tr><td style="font-weight:bold;vertical-align:top;">application</td><td style="vertical-align:top;">:</td><td><div>cs183project</div></td></tr><tr><td style="font-weight:bold;vertical-align:top;">args</td><td style="vertical-align:top;">:</td><td><div><table></table></div></td></tr><tr><td style="font-weight:bold;vertical-align:top;">cid</td><td style="vertical-align:top;">:</td><td><div>None</div></td></tr><tr><td style="font-weight:bold;vertical-align:top;">client</td><td style="vertical-align:top;">:</td><td><div>127.0.0.1</div></td></tr><tr><td style="font-weight:bold;vertical-align:top;">controller</td><td style="vertical-align:top;">:</td><td><div>default</div></td></tr><tr><td style="font-weight:bold;vertical-align:top;">cookies</td><td style="vertical-align:top;">:</td><td><div><table><tr><td style="font-weight:bold;vertical-align:top;">io</td><td style="vertical-align:top;">:</td><td><div>YQ0IZc1WikGJN-8gAAAB<table><tr><td style="font-weight:bold;vertical-align:top;">comment</td><td style="vertical-align:top;">:</td><td><div></div></td></tr><tr><td style="font-weight:bold;vertical-align:top;">domain</td><td style="vertical-align:top;">:</td><td><div></div></td></tr><tr><td style="font-weight:bold;vertical-align:top;">expires</td><td style="vertical-align:top;">:</td><td><div></div></td></tr><tr><td style="font-weight:bold;vertical-align:top;">httponly</td><td style="vertical-align:top;">:</td><td><div></div></td></tr><tr><td style="font-weight:bold;vertical-align:top;">max-age</td><td style="vertical-align:top;">:</td><td><div></div></td></tr><tr><td style="font-weight:bold;vertical-align:top;">path</td><td style="vertical-align:top;">:</td><td><div></div></td></tr><tr><td style="font-weight:bold;vertical-align:top;">secure</td><td style="vertical-align:top;">:</td><td><div></div></td></tr><tr><td style="font-weight:bold;vertical-align:top;">version</td><td style="vertical-align:top;">:</td><td><div></div></td></tr></table></div></td></tr><tr><td style="font-weight:bold;vertical-align:top;">session_id_admin</td><td style="vertical-align:top;">:</td><td><div>127.0.0.1-09646a71-a980-4d93-9e24-f9f705485f7c<table><tr><td style="font-weight:bold;vertical-align:top;">comment</td><td style="vertical-align:top;">:</td><td><div></div></td></tr><tr><td style="font-weight:bold;vertical-align:top;">domain</td><td style="vertical-align:top;">:</td><td><div></div></td></tr><tr><td style="font-weight:bold;vertical-align:top;">expires</td><td style="vertical-align:top;">:</td><td><div></div></td></tr><tr><td style="font-weight:bold;vertical-align:top;">httponly</td><td style="vertical-align:top;">:</td><td><div></div></td></tr><tr><td style="font-weight:bold;vertical-align:top;">max-age</td><td style="vertical-align:top;">:</td><td><div></div></td></tr><tr><td style="font-weight:bold;vertical-align:top;">path</td><td style="vertical-align:top;">:</td><td><div></div></td></tr><tr><td style="font-weight:bold;vertical-align:top;">secure</td><td style="vertical-align:top;">:</td><td><div></div></td></tr><tr><td style="font-weight:bold;vertical-align:top;">version</td><td style="vertical-align:top;">:</td><td><div></div></td></tr></table></div></td></tr><tr><td style="font-weight:bold;vertical-align:top;">session_id_blah</td><td style="vertical-align:top;">:</td><td><div>2:80b3f128-eccc-4a9a-8294-0c0517545537<table><tr><td style="font-weight:bold;vertical-align:top;">comment</td><td style="vertical-align:top;">:</td><td><div></div></td></tr><tr><td style="font-weight:bold;vertical-align:top;">domain</td><td style="vertical-align:top;">:</td><td><div></div></td></tr><tr><td style="font-weight:bold;vertical-align:top;">expires</td><td style="vertical-align:top;">:</td><td><div></div></td></tr><tr><td style="font-weight:bold;vertical-align:top;">httponly</td><td style="vertical-align:top;">:</td><td><div></div></td></tr><tr><td style="font-weight:bold;vertical-align:top;">max-age</td><td style="vertical-align:top;">:</td><td><div></div></td></tr><tr><td style="font-weight:bold;vertical-align:top;">path</td><td style="vertical-align:top;">:</td><td><div></div></td></tr><tr><td style="font-weight:bold;vertical-align:top;">secure</td><td style="vertical-align:top;">:</td><td><div></div></td></tr><tr><td style="font-weight:bold;vertical-align:top;">version</td><td style="vertical-align:top;">:</td><td><div></div></td></tr></table></div></td></tr><tr><td style="font-weight:bold;vertical-align:top;">session_id_cs183project</td><td style="vertical-align:top;">:</td><td><div>2:516194e3-4c76-406f-ad09-498e70a15419<table><tr><td style="font-weight:bold;vertical-align:top;">comment</td><td style="vertical-align:top;">:</td><td><div></div></td></tr><tr><td style="font-weight:bold;vertical-align:top;">domain</td><td style="vertical-align:top;">:</td><td><div></div></td></tr><tr><td style="font-weight:bold;vertical-align:top;">expires</td><td style="vertical-align:top;">:</td><td><div></div></td></tr><tr><td style="font-weight:bold;vertical-align:top;">httponly</td><td style="vertical-align:top;">:</td><td><div></div></td></tr><tr><td style="font-weight:bold;vertical-align:top;">max-age</td><td style="vertical-align:top;">:</td><td><div></div></td></tr><tr><td style="font-weight:bold;vertical-align:top;">path</td><td style="vertical-align:top;">:</td><td><div></div></td></tr><tr><td style="font-weight:bold;vertical-align:top;">secure</td><td style="vertical-align:top;">:</td><td><div></div></td></tr><tr><td style="font-weight:bold;vertical-align:top;">version</td><td style="vertical-align:top;">:</td><td><div></div></td></tr></table></div></td></tr><tr><td style="font-weight:bold;vertical-align:top;">session_id_five</td><td style="vertical-align:top;">:</td><td><div>1:005134c9-d411-41fd-aa72-8d94c77da6b5<table><tr><td style="font-weight:bold;vertical-align:top;">comment</td><td style="vertical-align:top;">:</td><td><div></div></td></tr><tr><td style="font-weight:bold;vertical-align:top;">domain</td><td style="vertical-align:top;">:</td><td><div></div></td></tr><tr><td style="font-weight:bold;vertical-align:top;">expires</td><td style="vertical-align:top;">:</td><td><div></div></td></tr><tr><td style="font-weight:bold;vertical-align:top;">httponly</td><td style="vertical-align:top;">:</td><td><div></div></td></tr><tr><td style="font-weight:bold;vertical-align:top;">max-age</td><td style="vertical-align:top;">:</td><td><div></div></td></tr><tr><td style="font-weight:bold;vertical-align:top;">path</td><td style="vertical-align:top;">:</td><td><div></div></td></tr><tr><td style="font-weight:bold;vertical-align:top;">secure</td><td style="vertical-align:top;">:</td><td><div></div></td></tr><tr><td style="font-weight:bold;vertical-align:top;">version</td><td style="vertical-align:top;">:</td><td><div></div></td></tr></table></div></td></tr><tr><td style="font-weight:bold;vertical-align:top;">session_id_four</td><td style="vertical-align:top;">:</td><td><div>1:19bbb579-ebff-4f45-8cc6-030a412dd54e<table><tr><td style="font-weight:bold;vertical-align:top;">comment</td><td style="vertical-align:top;">:</td><td><div></div></td></tr><tr><td style="font-weight:bold;vertical-align:top;">domain</td><td style="vertical-align:top;">:</td><td><div></div></td></tr><tr><td style="font-weight:bold;vertical-align:top;">expires</td><td style="vertical-align:top;">:</td><td><div></div></td></tr><tr><td style="font-weight:bold;vertical-align:top;">httponly</td><td style="vertical-align:top;">:</td><td><div></div></td></tr><tr><td style="font-weight:bold;vertical-align:top;">max-age</td><td style="vertical-align:top;">:</td><td><div></div></td></tr><tr><td style="font-weight:bold;vertical-align:top;">path</td><td style="vertical-align:top;">:</td><td><div></div></td></tr><tr><td style="font-weight:bold;vertical-align:top;">secure</td><td style="vertical-align:top;">:</td><td><div></div></td></tr><tr><td style="font-weight:bold;vertical-align:top;">version</td><td style="vertical-align:top;">:</td><td><div></div></td></tr></table></div></td></tr><tr><td style="font-weight:bold;vertical-align:top;">session_id_homework2</td><td style="vertical-align:top;">:</td><td><div>127.0.0.1-169348ad-757d-42a4-83ac-c57dcb38caa9<table><tr><td style="font-weight:bold;vertical-align:top;">comment</td><td style="vertical-align:top;">:</td><td><div></div></td></tr><tr><td style="font-weight:bold;vertical-align:top;">domain</td><td style="vertical-align:top;">:</td><td><div></div></td></tr><tr><td style="font-weight:bold;vertical-align:top;">expires</td><td style="vertical-align:top;">:</td><td><div></div></td></tr><tr><td style="font-weight:bold;vertical-align:top;">httponly</td><td style="vertical-align:top;">:</td><td><div></div></td></tr><tr><td style="font-weight:bold;vertical-align:top;">max-age</td><td style="vertical-align:top;">:</td><td><div></div></td></tr><tr><td style="font-weight:bold;vertical-align:top;">path</td><td style="vertical-align:top;">:</td><td><div></div></td></tr><tr><td style="font-weight:bold;vertical-align:top;">secure</td><td style="vertical-align:top;">:</td><td><div></div></td></tr><tr><td style="font-weight:bold;vertical-align:top;">version</td><td style="vertical-align:top;">:</td><td><div></div></td></tr></table></div></td></tr><tr><td style="font-weight:bold;vertical-align:top;">session_id_hw2</td><td style="vertical-align:top;">:</td><td><div>6:9384a321-6baf-456e-9d78-b1aa2540cc8f<table><tr><td style="font-weight:bold;vertical-align:top;">comment</td><td style="vertical-align:top;">:</td><td><div></div></td></tr><tr><td style="font-weight:bold;vertical-align:top;">domain</td><td style="vertical-align:top;">:</td><td><div></div></td></tr><tr><td style="font-weight:bold;vertical-align:top;">expires</td><td style="vertical-align:top;">:</td><td><div></div></td></tr><tr><td style="font-weight:bold;vertical-align:top;">httponly</td><td style="vertical-align:top;">:</td><td><div></div></td></tr><tr><td style="font-weight:bold;vertical-align:top;">max-age</td><td style="vertical-align:top;">:</td><td><div></div></td></tr><tr><td style="font-weight:bold;vertical-align:top;">path</td><td style="vertical-align:top;">:</td><td><div></div></td></tr><tr><td style="font-weight:bold;vertical-align:top;">secure</td><td style="vertical-align:top;">:</td><td><div></div></td></tr><tr><td style="font-weight:bold;vertical-align:top;">version</td><td style="vertical-align:top;">:</td><td><div></div></td></tr></table></div></td></tr><tr><td style="font-weight:bold;vertical-align:top;">session_id_hw2ref</td><td style="vertical-align:top;">:</td><td><div>45:b372ca3a-e249-423b-8370-4e0b2feda862<table><tr><td style="font-weight:bold;vertical-align:top;">comment</td><td style="vertical-align:top;">:</td><td><div></div></td></tr><tr><td style="font-weight:bold;vertical-align:top;">domain</td><td style="vertical-align:top;">:</td><td><div></div></td></tr><tr><td style="font-weight:bold;vertical-align:top;">expires</td><td style="vertical-align:top;">:</td><td><div></div></td></tr><tr><td style="font-weight:bold;vertical-align:top;">httponly</td><td style="vertical-align:top;">:</td><td><div></div></td></tr><tr><td style="font-weight:bold;vertical-align:top;">max-age</td><td style="vertical-align:top;">:</td><td><div></div></td></tr><tr><td style="font-weight:bold;vertical-align:top;">path</td><td style="vertical-align:top;">:</td><td><div></div></td></tr><tr><td style="font-weight:bold;vertical-align:top;">secure</td><td style="vertical-align:top;">:</td><td><div></div></td></tr><tr><td style="font-weight:bold;vertical-align:top;">version</td><td style="vertical-align:top;">:</td><td><div></div></td></tr></table></div></td></tr><tr><td style="font-weight:bold;vertical-align:top;">session_id_hw4</td><td style="vertical-align:top;">:</td><td><div>29:791cde5d-1168-43d7-b105-d6d403e2e8c5<table><tr><td style="font-weight:bold;vertical-align:top;">comment</td><td style="vertical-align:top;">:</td><td><div></div></td></tr><tr><td style="font-weight:bold;vertical-align:top;">domain</td><td style="vertical-align:top;">:</td><td><div></div></td></tr><tr><td style="font-weight:bold;vertical-align:top;">expires</td><td style="vertical-align:top;">:</td><td><div></div></td></tr><tr><td style="font-weight:bold;vertical-align:top;">httponly</td><td style="vertical-align:top;">:</td><td><div></div></td></tr><tr><td style="font-weight:bold;vertical-align:top;">max-age</td><td style="vertical-align:top;">:</td><td><div></div></td></tr><tr><td style="font-weight:bold;vertical-align:top;">path</td><td style="vertical-align:top;">:</td><td><div></div></td></tr><tr><td style="font-weight:bold;vertical-align:top;">secure</td><td style="vertical-align:top;">:</td><td><div></div></td></tr><tr><td style="font-weight:bold;vertical-align:top;">version</td><td style="vertical-align:top;">:</td><td><div></div></td></tr></table></div></td></tr><tr><td style="font-weight:bold;vertical-align:top;">session_id_hw5</td><td style="vertical-align:top;">:</td><td><div>13:d62d4135-2e1b-4077-82e3-288f00bf4fb8<table><tr><td style="font-weight:bold;vertical-align:top;">comment</td><td style="vertical-align:top;">:</td><td><div></div></td></tr><tr><td style="font-weight:bold;vertical-align:top;">domain</td><td style="vertical-align:top;">:</td><td><div></div></td></tr><tr><td style="font-weight:bold;vertical-align:top;">expires</td><td style="vertical-align:top;">:</td><td><div></div></td></tr><tr><td style="font-weight:bold;vertical-align:top;">httponly</td><td style="vertical-align:top;">:</td><td><div></div></td></tr><tr><td style="font-weight:bold;vertical-align:top;">max-age</td><td style="vertical-align:top;">:</td><td><div></div></td></tr><tr><td style="font-weight:bold;vertical-align:top;">path</td><td style="vertical-align:top;">:</td><td><div></div></td></tr><tr><td style="font-weight:bold;vertical-align:top;">secure</td><td style="vertical-align:top;">:</td><td><div></div></td></tr><tr><td style="font-weight:bold;vertical-align:top;">version</td><td style="vertical-align:top;">:</td><td><div></div></td></tr></table></div></td></tr><tr><td style="font-weight:bold;vertical-align:top;">session_id_myproject</td><td style="vertical-align:top;">:</td><td><div>1:9a26a399-a4fe-4023-a7e5-04b866cd00cf<table><tr><td style="font-weight:bold;vertical-align:top;">comment</td><td style="vertical-align:top;">:</td><td><div></div></td></tr><tr><td style="font-weight:bold;vertical-align:top;">domain</td><td style="vertical-align:top;">:</td><td><div></div></td></tr><tr><td style="font-weight:bold;vertical-align:top;">expires</td><td style="vertical-align:top;">:</td><td><div></div></td></tr><tr><td style="font-weight:bold;vertical-align:top;">httponly</td><td style="vertical-align:top;">:</td><td><div></div></td></tr><tr><td style="font-weight:bold;vertical-align:top;">max-age</td><td style="vertical-align:top;">:</td><td><div></div></td></tr><tr><td style="font-weight:bold;vertical-align:top;">path</td><td style="vertical-align:top;">:</td><td><div></div></td></tr><tr><td style="font-weight:bold;vertical-align:top;">secure</td><td style="vertical-align:top;">:</td><td><div></div></td></tr><tr><td style="font-weight:bold;vertical-align:top;">version</td><td style="vertical-align:top;">:</td><td><div></div></td></tr></table></div></td></tr><tr><td style="font-weight:bold;vertical-align:top;">session_id_one</td><td style="vertical-align:top;">:</td><td><div>2:d96c2d0d-55b9-410e-8f7d-b56d30bc259e<table><tr><td style="font-weight:bold;vertical-align:top;">comment</td><td style="vertical-align:top;">:</td><td><div></div></td></tr><tr><td style="font-weight:bold;vertical-align:top;">domain</td><td style="vertical-align:top;">:</td><td><div></div></td></tr><tr><td style="font-weight:bold;vertical-align:top;">expires</td><td style="vertical-align:top;">:</td><td><div></div></td></tr><tr><td style="font-weight:bold;vertical-align:top;">httponly</td><td style="vertical-align:top;">:</td><td><div></div></td></tr><tr><td style="font-weight:bold;vertical-align:top;">max-age</td><td style="vertical-align:top;">:</td><td><div></div></td></tr><tr><td style="font-weight:bold;vertical-align:top;">path</td><td style="vertical-align:top;">:</td><td><div></div></td></tr><tr><td style="font-weight:bold;vertical-align:top;">secure</td><td style="vertical-align:top;">:</td><td><div></div></td></tr><tr><td style="font-weight:bold;vertical-align:top;">version</td><td style="vertical-align:top;">:</td><td><div></div></td></tr></table></div></td></tr><tr><td style="font-weight:bold;vertical-align:top;">session_id_review1</td><td style="vertical-align:top;">:</td><td><div>2:224c7970-b5a2-4e50-9769-3fafd019dae6<table><tr><td style="font-weight:bold;vertical-align:top;">comment</td><td style="vertical-align:top;">:</td><td><div></div></td></tr><tr><td style="font-weight:bold;vertical-align:top;">domain</td><td style="vertical-align:top;">:</td><td><div></div></td></tr><tr><td style="font-weight:bold;vertical-align:top;">expires</td><td style="vertical-align:top;">:</td><td><div></div></td></tr><tr><td style="font-weight:bold;vertical-align:top;">httponly</td><td style="vertical-align:top;">:</td><td><div></div></td></tr><tr><td style="font-weight:bold;vertical-align:top;">max-age</td><td style="vertical-align:top;">:</td><td><div></div></td></tr><tr><td style="font-weight:bold;vertical-align:top;">path</td><td style="vertical-align:top;">:</td><td><div></div></td></tr><tr><td style="font-weight:bold;vertical-align:top;">secure</td><td style="vertical-align:top;">:</td><td><div></div></td></tr><tr><td style="font-weight:bold;vertical-align:top;">version</td><td style="vertical-align:top;">:</td><td><div></div></td></tr></table></div></td></tr><tr><td style="font-weight:bold;vertical-align:top;">session_id_review2</td><td style="vertical-align:top;">:</td><td><div>1:e9c99d99-cce1-4ad8-8cd5-af615cb74399<table><tr><td style="font-weight:bold;vertical-align:top;">comment</td><td style="vertical-align:top;">:</td><td><div></div></td></tr><tr><td style="font-weight:bold;vertical-align:top;">domain</td><td style="vertical-align:top;">:</td><td><div></div></td></tr><tr><td style="font-weight:bold;vertical-align:top;">expires</td><td style="vertical-align:top;">:</td><td><div></div></td></tr><tr><td style="font-weight:bold;vertical-align:top;">httponly</td><td style="vertical-align:top;">:</td><td><div></div></td></tr><tr><td style="font-weight:bold;vertical-align:top;">max-age</td><td style="vertical-align:top;">:</td><td><div></div></td></tr><tr><td style="font-weight:bold;vertical-align:top;">path</td><td style="vertical-align:top;">:</td><td><div></div></td></tr><tr><td style="font-weight:bold;vertical-align:top;">secure</td><td style="vertical-align:top;">:</td><td><div></div></td></tr><tr><td style="font-weight:bold;vertical-align:top;">version</td><td style="vertical-align:top;">:</td><td><div></div></td></tr></table></div></td></tr><tr><td style="font-weight:bold;vertical-align:top;">session_id_review3</td><td style="vertical-align:top;">:</td><td><div>1:195d0623-e8b7-4de5-8e11-e178ec0407e2<table><tr><td style="font-weight:bold;vertical-align:top;">comment</td><td style="vertical-align:top;">:</td><td><div></div></td></tr><tr><td style="font-weight:bold;vertical-align:top;">domain</td><td style="vertical-align:top;">:</td><td><div></div></td></tr><tr><td style="font-weight:bold;vertical-align:top;">expires</td><td style="vertical-align:top;">:</td><td><div></div></td></tr><tr><td style="font-weight:bold;vertical-align:top;">httponly</td><td style="vertical-align:top;">:</td><td><div></div></td></tr><tr><td style="font-weight:bold;vertical-align:top;">max-age</td><td style="vertical-align:top;">:</td><td><div></div></td></tr><tr><td style="font-weight:bold;vertical-align:top;">path</td><td style="vertical-align:top;">:</td><td><div></div></td></tr><tr><td style="font-weight:bold;vertical-align:top;">secure</td><td style="vertical-align:top;">:</td><td><div></div></td></tr><tr><td style="font-weight:bold;vertical-align:top;">version</td><td style="vertical-align:top;">:</td><td><div></div></td></tr></table></div></td></tr><tr><td style="font-weight:bold;vertical-align:top;">session_id_review4</td><td style="vertical-align:top;">:</td><td><div>1:a09b851e-8ee9-4748-891c-19d610b81470<table><tr><td style="font-weight:bold;vertical-align:top;">comment</td><td style="vertical-align:top;">:</td><td><div></div></td></tr><tr><td style="font-weight:bold;vertical-align:top;">domain</td><td style="vertical-align:top;">:</td><td><div></div></td></tr><tr><td style="font-weight:bold;vertical-align:top;">expires</td><td style="vertical-align:top;">:</td><td><div></div></td></tr><tr><td style="font-weight:bold;vertical-align:top;">httponly</td><td style="vertical-align:top;">:</td><td><div></div></td></tr><tr><td style="font-weight:bold;vertical-align:top;">max-age</td><td style="vertical-align:top;">:</td><td><div></div></td></tr><tr><td style="font-weight:bold;vertical-align:top;">path</td><td style="vertical-align:top;">:</td><td><div></div></td></tr><tr><td style="font-weight:bold;vertical-align:top;">secure</td><td style="vertical-align:top;">:</td><td><div></div></td></tr><tr><td style="font-weight:bold;vertical-align:top;">version</td><td style="vertical-align:top;">:</td><td><div></div></td></tr></table></div></td></tr><tr><td style="font-weight:bold;vertical-align:top;">session_id_review5</td><td style="vertical-align:top;">:</td><td><div>1:6b48c4f0-671c-4d6e-8496-0d4bdbec564b<table><tr><td style="font-weight:bold;vertical-align:top;">comment</td><td style="vertical-align:top;">:</td><td><div></div></td></tr><tr><td style="font-weight:bold;vertical-align:top;">domain</td><td style="vertical-align:top;">:</td><td><div></div></td></tr><tr><td style="font-weight:bold;vertical-align:top;">expires</td><td style="vertical-align:top;">:</td><td><div></div></td></tr><tr><td style="font-weight:bold;vertical-align:top;">httponly</td><td style="vertical-align:top;">:</td><td><div></div></td></tr><tr><td style="font-weight:bold;vertical-align:top;">max-age</td><td style="vertical-align:top;">:</td><td><div></div></td></tr><tr><td style="font-weight:bold;vertical-align:top;">path</td><td style="vertical-align:top;">:</td><td><div></div></td></tr><tr><td style="font-weight:bold;vertical-align:top;">secure</td><td style="vertical-align:top;">:</td><td><div></div></td></tr><tr><td style="font-weight:bold;vertical-align:top;">version</td><td style="vertical-align:top;">:</td><td><div></div></td></tr></table></div></td></tr><tr><td style="font-weight:bold;vertical-align:top;">session_id_start</td><td style="vertical-align:top;">:</td><td><div>1:9c879f44-a8dc-4628-a5a0-86e4b0366f39<table><tr><td style="font-weight:bold;vertical-align:top;">comment</td><td style="vertical-align:top;">:</td><td><div></div></td></tr><tr><td style="font-weight:bold;vertical-align:top;">domain</td><td style="vertical-align:top;">:</td><td><div></div></td></tr><tr><td style="font-weight:bold;vertical-align:top;">expires</td><td style="vertical-align:top;">:</td><td><div></div></td></tr><tr><td style="font-weight:bold;vertical-align:top;">httponly</td><td style="vertical-align:top;">:</td><td><div></div></td></tr><tr><td style="font-weight:bold;vertical-align:top;">max-age</td><td style="vertical-align:top;">:</td><td><div></div></td></tr><tr><td style="font-weight:bold;vertical-align:top;">path</td><td style="vertical-align:top;">:</td><td><div></div></td></tr><tr><td style="font-weight:bold;vertical-align:top;">secure</td><td style="vertical-align:top;">:</td><td><div></div></td></tr><tr><td style="font-weight:bold;vertical-align:top;">version</td><td style="vertical-align:top;">:</td><td><div></div></td></tr></table></div></td></tr><tr><td style="font-weight:bold;vertical-align:top;">session_id_three</td><td style="vertical-align:top;">:</td><td><div>2:c9aebf64-6ecb-4452-98d7-f3db07eec2ab<table><tr><td style="font-weight:bold;vertical-align:top;">comment</td><td style="vertical-align:top;">:</td><td><div></div></td></tr><tr><td style="font-weight:bold;vertical-align:top;">domain</td><td style="vertical-align:top;">:</td><td><div></div></td></tr><tr><td style="font-weight:bold;vertical-align:top;">expires</td><td style="vertical-align:top;">:</td><td><div></div></td></tr><tr><td style="font-weight:bold;vertical-align:top;">httponly</td><td style="vertical-align:top;">:</td><td><div></div></td></tr><tr><td style="font-weight:bold;vertical-align:top;">max-age</td><td style="vertical-align:top;">:</td><td><div></div></td></tr><tr><td style="font-weight:bold;vertical-align:top;">path</td><td style="vertical-align:top;">:</td><td><div></div></td></tr><tr><td style="font-weight:bold;vertical-align:top;">secure</td><td style="vertical-align:top;">:</td><td><div></div></td></tr><tr><td style="font-weight:bold;vertical-align:top;">version</td><td style="vertical-align:top;">:</td><td><div></div></td></tr></table></div></td></tr><tr><td style="font-weight:bold;vertical-align:top;">session_id_two</td><td style="vertical-align:top;">:</td><td><div>1:c4bf32f5-1921-4d62-ab3c-29685bf150e7<table><tr><td style="font-weight:bold;vertical-align:top;">comment</td><td style="vertical-align:top;">:</td><td><div></div></td></tr><tr><td style="font-weight:bold;vertical-align:top;">domain</td><td style="vertical-align:top;">:</td><td><div></div></td></tr><tr><td style="font-weight:bold;vertical-align:top;">expires</td><td style="vertical-align:top;">:</td><td><div></div></td></tr><tr><td style="font-weight:bold;vertical-align:top;">httponly</td><td style="vertical-align:top;">:</td><td><div></div></td></tr><tr><td style="font-weight:bold;vertical-align:top;">max-age</td><td style="vertical-align:top;">:</td><td><div></div></td></tr><tr><td style="font-weight:bold;vertical-align:top;">path</td><td style="vertical-align:top;">:</td><td><div></div></td></tr><tr><td style="font-weight:bold;vertical-align:top;">secure</td><td style="vertical-align:top;">:</td><td><div></div></td></tr><tr><td style="font-weight:bold;vertical-align:top;">version</td><td style="vertical-align:top;">:</td><td><div></div></td></tr></table></div></td></tr><tr><td style="font-weight:bold;vertical-align:top;">session_id_web2py_start_2016</td><td style="vertical-align:top;">:</td><td><div>34:5ee58d32-a063-43b7-8e13-67aa1e28bd28<table><tr><td style="font-weight:bold;vertical-align:top;">comment</td><td style="vertical-align:top;">:</td><td><div></div></td></tr><tr><td style="font-weight:bold;vertical-align:top;">domain</td><td style="vertical-align:top;">:</td><td><div></div></td></tr><tr><td style="font-weight:bold;vertical-align:top;">expires</td><td style="vertical-align:top;">:</td><td><div></div></td></tr><tr><td style="font-weight:bold;vertical-align:top;">httponly</td><td style="vertical-align:top;">:</td><td><div></div></td></tr><tr><td style="font-weight:bold;vertical-align:top;">max-age</td><td style="vertical-align:top;">:</td><td><div></div></td></tr><tr><td style="font-weight:bold;vertical-align:top;">path</td><td style="vertical-align:top;">:</td><td><div></div></td></tr><tr><td style="font-weight:bold;vertical-align:top;">secure</td><td style="vertical-align:top;">:</td><td><div></div></td></tr><tr><td style="font-weight:bold;vertical-align:top;">version</td><td style="vertical-align:top;">:</td><td><div></div></td></tr></table></div></td></tr><tr><td style="font-weight:bold;vertical-align:top;">session_id_welcome</td><td style="vertical-align:top;">:</td><td><div>127.0.0.1-d3a08f00-982f-482c-a0d2-0adcd4aaf230<table><tr><td style="font-weight:bold;vertical-align:top;">comment</td><td style="vertical-align:top;">:</td><td><div></div></td></tr><tr><td style="font-weight:bold;vertical-align:top;">domain</td><td style="vertical-align:top;">:</td><td><div></div></td></tr><tr><td style="font-weight:bold;vertical-align:top;">expires</td><td style="vertical-align:top;">:</td><td><div></div></td></tr><tr><td style="font-weight:bold;vertical-align:top;">httponly</td><td style="vertical-align:top;">:</td><td><div></div></td></tr><tr><td style="font-weight:bold;vertical-align:top;">max-age</td><td style="vertical-align:top;">:</td><td><div></div></td></tr><tr><td style="font-weight:bold;vertical-align:top;">path</td><td style="vertical-align:top;">:</td><td><div></div></td></tr><tr><td style="font-weight:bold;vertical-align:top;">secure</td><td style="vertical-align:top;">:</td><td><div></div></td></tr><tr><td style="font-weight:bold;vertical-align:top;">version</td><td style="vertical-align:top;">:</td><td><div></div></td></tr></table></div></td></tr></table></div></td></tr><tr><td style="font-weight:bold;vertical-align:top;">env</td><td style="vertical-align:top;">:</td><td><div><table><tr><td style="font-weight:bold;vertical-align:top;">HTTP_ACCEPT</td><td style="vertical-align:top;">:</td><td><div>text/html,application/xhtml+xml,application/xml;q=0.9,image/webp,image/apng,*/*;q=0.8</div></td></tr><tr><td style="font-weight:bold;vertical-align:top;">HTTP_ACCEPT_ENCODING</td><td style="vertical-align:top;">:</td><td><div>gzip, deflate, br</div></td></tr><tr><td style="font-weight:bold;vertical-align:top;">HTTP_ACCEPT_LANGUAGE</td><td style="vertical-align:top;">:</td><td><div>en-US,en;q=0.9,fr;q=0.8</div></td></tr><tr><td style="font-weight:bold;vertical-align:top;">HTTP_CACHE_CONTROL</td><td style="vertical-align:top;">:</td><td><div>no-cache</div></td></tr><tr><td style="font-weight:bold;vertical-align:top;">HTTP_CONNECTION</td><td style="vertical-align:top;">:</td><td><div>keep-alive</div></td></tr><tr><td style="font-weight:bold;vertical-align:top;">HTTP_COOKIE</td><td style="vertical-align:top;">:</td><td><div>session_id_start=&quot;1:9c879f44-a8dc-4628-a5a0-86e4b0366f39&quot;; session_id_homework2=127.0.0.1-169348ad-757d-42a4-83ac-c57dcb38caa9; session_id_myproject=1:9a26a399-a4fe-4023-a7e5-04b866cd00cf; session_id_admin=127.0.0.1-09646a71-a980-4d93-9e24-f9f705485f7c; session_id_web2py_start_2016=&quot;34:5ee58d32-a063-43b7-8e13-67aa1e28bd28&quot;; session_id_blah=&quot;2:80b3f128-eccc-4a9a-8294-0c0517545537&quot;; session_id_hw2=&quot;6:9384a321-6baf-456e-9d78-b1aa2540cc8f&quot;; session_id_hw2ref=&quot;45:b372ca3a-e249-423b-8370-4e0b2feda862&quot;; session_id_hw4=&quot;29:791cde5d-1168-43d7-b105-d6d403e2e8c5&quot;; session_id_review1=&quot;2:224c7970-b5a2-4e50-9769-3fafd019dae6&quot;; session_id_review2=&quot;1:e9c99d99-cce1-4ad8-8cd5-af615cb74399&quot;; session_id_review3=&quot;1:195d0623-e8b7-4de5-8e11-e178ec0407e2&quot;; session_id_review4=&quot;1:a09b851e-8ee9-4748-891c-19d610b81470&quot;; session_id_review5=&quot;1:6b48c4f0-671c-4d6e-8496-0d4bdbec564b&quot;; session_id_hw5=&quot;13:d62d4135-2e1b-4077-82e3-288f00bf4fb8&quot;; io=YQ0IZc1WikGJN-8gAAAB; session_id_one=&quot;2:d96c2d0d-55b9-410e-8f7d-b56d30bc259e&quot;; session_id_two=&quot;1:c4bf32f5-1921-4d62-ab3c-29685bf150e7&quot;; session_id_three=&quot;2:c9aebf64-6ecb-4452-98d7-f3db07eec2ab&quot;; session_id_four=&quot;1:19bbb579-ebff-4f45-8cc6-030a412dd54e&quot;; session_id_five=&quot;1:005134c9-d411-41fd-aa72-8d94c77da6b5&quot;; session_id_welcome=127.0.0.1-d3a08f00-982f-482c-a0d2-0adcd4aaf230; session_id_cs183project=&quot;2:516194e3-4c76-406f-ad09-498e70a15419&quot;</div></td></tr><tr><td style="font-weight:bold;vertical-align:top;">HTTP_HOST</td><td style="vertical-align:top;">:</td><td><div>127.0.0.1:8000</div></td></tr><tr><td style="font-weight:bold;vertical-align:top;">HTTP_PRAGMA</td><td style="vertical-align:top;">:</td><td><div>no-cache</div></td></tr><tr><td style="font-weight:bold;vertical-align:top;">HTTP_REFERER</td><td style="vertical-align:top;">:</td><td><div>http://127.0.0.1:8000/cs183project/default/index</div></td></tr><tr><td style="font-weight:bold;vertical-align:top;">HTTP_UPGRADE_INSECURE_REQUESTS</td><td style="vertical-align:top;">:</td><td><div>1</div></td></tr><tr><td style="font-weight:bold;vertical-align:top;">HTTP_USER_AGENT</td><td style="vertical-align:top;">:</td><td><div>Mozilla/5.0 (Linux; Android 6.0; Nexus 5 Build/MRA58N) AppleWebKit/537.36 (KHTML, like Gecko) Chrome/66.0.3359.181 Mobile Safari/537.36</div></td></tr><tr><td style="font-weight:bold;vertical-align:top;">PATH_INFO</td><td style="vertical-align:top;">:</td><td><div>/cs183project/default/profile</div></td></tr><tr><td style="font-weight:bold;vertical-align:top;">QUERY_STRING</td><td style="vertical-align:top;">:</td><td><div></div></td></tr><tr><td style="font-weight:bold;vertical-align:top;">REMOTE_ADDR</td><td style="vertical-align:top;">:</td><td><div>127.0.0.1</div></td></tr><tr><td style="font-weight:bold;vertical-align:top;">REMOTE_PORT</td><td style="vertical-align:top;">:</td><td><div>49974</div></td></tr><tr><td style="font-weight:bold;vertical-align:top;">REQUEST_METHOD</td><td style="vertical-align:top;">:</td><td><div>GET</div></td></tr><tr><td style="font-weight:bold;vertical-align:top;">SCRIPT_NAME</td><td style="vertical-align:top;">:</td><td><div></div></td></tr><tr><td style="font-weight:bold;vertical-align:top;">SERVER_NAME</td><td style="vertical-align:top;">:</td><td><div>eduroam-169-233-194-145.ucsc.edu</div></td></tr><tr><td style="font-weight:bold;vertical-align:top;">SERVER_PORT</td><td style="vertical-align:top;">:</td><td><div>8000</div></td></tr><tr><td style="font-weight:bold;vertical-align:top;">SERVER_PROTOCOL</td><td style="vertical-align:top;">:</td><td><div>HTTP/1.1</div></td></tr><tr><td style="font-weight:bold;vertical-align:top;">SERVER_SOFTWARE</td><td style="vertical-align:top;">:</td><td><div>Rocket 1.2.6</div></td></tr><tr><td style="font-weight:bold;vertical-align:top;">app_folders</td><td style="vertical-align:top;">:</td><td><div>set([&#x27;/Users/EmmyB/Desktop/web2py/applications/welcome/&#x27;, &#x27;/Users/EmmyB/Desktop/web2py/applications/admin/&#x27;, &#x27;/Users/EmmyB/Desktop/web2py/applications/cs183project/&#x27;])</div></td></tr><tr><td style="font-weight:bold;vertical-align:top;">applications_parent</td><td style="vertical-align:top;">:</td><td><div>/Users/EmmyB/Desktop/web2py</div></td></tr><tr><td style="font-weight:bold;vertical-align:top;">cmd_args</td><td style="vertical-align:top;">:</td><td><div><table></table></div></td></tr><tr><td style="font-weight:bold;vertical-align:top;">cmd_options</td><td style="vertical-align:top;">:</td><td><div>&lt;Values at 0x10e6f0ab8: {&#x27;verbose&#x27;: False, &#x27;ip&#x27;: &#x27;127.0.0.1&#x27;, &#x27;debuglevel&#x27;: 30, &#x27;with_scheduler&#x27;: False, &#x27;shutdown_timeout&#x27;: 5, &#x27;taskbar&#x27;: False, &#x27;with_coverage&#x27;: False, &#x27;pid_filename&#x27;: &#x27;httpserver.pid&#x27;, &#x27;maxthreads&#x27;: None, &#x27;softcron&#x27;: False, &#x27;server_name&#x27;: &#x27;eduroam-169-233-194-145.ucsc.edu&#x27;, &#x27;bpython&#x27;: False, &#x27;nogui&#x27;: False, &#x27;port&#x27;: 8000, &#x27;print_errors&#x27;: True, &#x27;extcron&#x27;: False, &#x27;runcron&#x27;: False, &#x27;run_system_tests&#x27;: False, &#x27;test&#x27;: None, &#x27;folder&#x27;: &#x27;/Users/EmmyB/Desktop/web2py&#x27;, &#x27;config&#x27;: &#x27;&#x27;, &#x27;minthreads&#x27;: None, &#x27;shell&#x27;: None, &#x27;run&#x27;: &#x27;&#x27;, &#x27;log_filename&#x27;: &#x27;httpserver.log&#x27;, &#x27;profiler_dir&#x27;: None, &#x27;args&#x27;: [&#x27;&#x27;], &#x27;socket_timeout&#x27;: 5, &#x27;ssl_ca_certificate&#x27;: None, &#x27;scheduler&#x27;: None, &#x27;interfaces&#x27;: None, &#x27;ssl_private_key&#x27;: &#x27;&#x27;, &#x27;gae&#x27;: None, &#x27;password&#x27;: &#x27;******&#x27;, &#x27;request_queue_size&#x27;: 5, &#x27;ssl_certificate&#x27;: &#x27;&#x27;, &#x27;cronjob&#x27;: False, &#x27;numthreads&#x27;: None, &#x27;quiet&#x27;: False, &#x27;import_models&#x27;: False, &#x27;timeout&#x27;: 10, &#x27;plain&#x27;: False, &#x27;nobanner&#x27;: False}&gt;</div></td></tr><tr><td style="font-weight:bold;vertical-align:top;">db_sessions</td><td style="vertical-align:top;">:</td><td><div>set([&#x27;cs183project&#x27;])</div></td></tr><tr><td style="font-weight:bold;vertical-align:top;">debugging</td><td style="vertical-align:top;">:</td><td><div>False</div></td></tr><tr><td style="font-weight:bold;vertical-align:top;">gluon_parent</td><td style="vertical-align:top;">:</td><td><div>/Users/EmmyB/Desktop/web2py</div></td></tr><tr><td style="font-weight:bold;vertical-align:top;">http_accept</td><td style="vertical-align:top;">:</td><td><div>text/html,application/xhtml+xml,application/xml;q=0.9,image/webp,image/apng,*/*;q=0.8</div></td></tr><tr><td style="font-weight:bold;vertical-align:top;">http_accept_encoding</td><td style="vertical-align:top;">:</td><td><div>gzip, deflate, br</div></td></tr><tr><td style="font-weight:bold;vertical-align:top;">http_accept_language</td><td style="vertical-align:top;">:</td><td><div>en-US,en;q=0.9,fr;q=0.8</div></td></tr><tr><td style="font-weight:bold;vertical-align:top;">http_cache_control</td><td style="vertical-align:top;">:</td><td><div>no-cache</div></td></tr><tr><td style="font-weight:bold;vertical-align:top;">http_connection</td><td style="vertical-align:top;">:</td><td><div>keep-alive</div></td></tr><tr><td style="font-weight:bold;vertical-align:top;">http_cookie</td><td style="vertical-align:top;">:</td><td><div>session_id_start=&quot;1:9c879f44-a8dc-4628-a5a0-86e4b0366f39&quot;; session_id_homework2=127.0.0.1-169348ad-757d-42a4-83ac-c57dcb38caa9; session_id_myproject=1:9a26a399-a4fe-4023-a7e5-04b866cd00cf; session_id_admin=127.0.0.1-09646a71-a980-4d93-9e24-f9f705485f7c; session_id_web2py_start_2016=&quot;34:5ee58d32-a063-43b7-8e13-67aa1e28bd28&quot;; session_id_blah=&quot;2:80b3f128-eccc-4a9a-8294-0c0517545537&quot;; session_id_hw2=&quot;6:9384a321-6baf-456e-9d78-b1aa2540cc8f&quot;; session_id_hw2ref=&quot;45:b372ca3a-e249-423b-8370-4e0b2feda862&quot;; session_id_hw4=&quot;29:791cde5d-1168-43d7-b105-d6d403e2e8c5&quot;; session_id_review1=&quot;2:224c7970-b5a2-4e50-9769-3fafd019dae6&quot;; session_id_review2=&quot;1:e9c99d99-cce1-4ad8-8cd5-af615cb74399&quot;; session_id_review3=&quot;1:195d0623-e8b7-4de5-8e11-e178ec0407e2&quot;; session_id_review4=&quot;1:a09b851e-8ee9-4748-891c-19d610b81470&quot;; session_id_review5=&quot;1:6b48c4f0-671c-4d6e-8496-0d4bdbec564b&quot;; session_id_hw5=&quot;13:d62d4135-2e1b-4077-82e3-288f00bf4fb8&quot;; io=YQ0IZc1WikGJN-8gAAAB; session_id_one=&quot;2:d96c2d0d-55b9-410e-8f7d-b56d30bc259e&quot;; session_id_two=&quot;1:c4bf32f5-1921-4d62-ab3c-29685bf150e7&quot;; session_id_three=&quot;2:c9aebf64-6ecb-4452-98d7-f3db07eec2ab&quot;; session_id_four=&quot;1:19bbb579-ebff-4f45-8cc6-030a412dd54e&quot;; session_id_five=&quot;1:005134c9-d411-41fd-aa72-8d94c77da6b5&quot;; session_id_welcome=127.0.0.1-d3a08f00-982f-482c-a0d2-0adcd4aaf230; session_id_cs183project=&quot;2:516194e3-4c76-406f-ad09-498e70a15419&quot;</div></td></tr><tr><td style="font-weight:bold;vertical-align:top;">http_host</td><td style="vertical-align:top;">:</td><td><div>127.0.0.1:8000</div></td></tr><tr><td style="font-weight:bold;vertical-align:top;">http_pragma</td><td style="vertical-align:top;">:</td><td><div>no-cache</div></td></tr><tr><td style="font-weight:bold;vertical-align:top;">http_referer</td><td style="vertical-align:top;">:</td><td><div>http://127.0.0.1:8000/cs183project/default/index</div></td></tr><tr><td style="font-weight:bold;vertical-align:top;">http_upgrade_insecure_requests</td><td style="vertical-align:top;">:</td><td><div>1</div></td></tr><tr><td style="font-weight:bold;vertical-align:top;">http_user_agent</td><td style="vertical-align:top;">:</td><td><div>Mozilla/5.0 (Linux; Android 6.0; Nexus 5 Build/MRA58N) AppleWebKit/537.36 (KHTML, like Gecko) Chrome/66.0.3359.181 Mobile Safari/537.36</div></td></tr><tr><td style="font-weight:bold;vertical-align:top;">is_jython</td><td style="vertical-align:top;">:</td><td><div>False</div></td></tr><tr><td style="font-weight:bold;vertical-align:top;">is_py2</td><td style="vertical-align:top;">:</td><td><div>True</div></td></tr><tr><td style="font-weight:bold;vertical-align:top;">is_pypy</td><td style="vertical-align:top;">:</td><td><div>False</div></td></tr><tr><td style="font-weight:bold;vertical-align:top;">is_source</td><td style="vertical-align:top;">:</td><td><div>True</div></td></tr><tr><td style="font-weight:bold;vertical-align:top;">local_hosts</td><td style="vertical-align:top;">:</td><td><div><table><tr><td><div>169.233.194.145</div></td></tr><tr><td><div>::1</div></td></tr><tr><td><div>::ffff:127.0.0.1</div></td></tr><tr><td><div>127.0.0.1</div></td></tr><tr><td><div>eduroam-169-233-194-145.ucsc.edu</div></td></tr></table></div></td></tr><tr><td style="font-weight:bold;vertical-align:top;">path_info</td><td style="vertical-align:top;">:</td><td><div>/cs183project/default/profile</div></td></tr><tr><td style="font-weight:bold;vertical-align:top;">query_string</td><td style="vertical-align:top;">:</td><td><div></div></td></tr><tr><td style="font-weight:bold;vertical-align:top;">remote_addr</td><td style="vertical-align:top;">:</td><td><div>127.0.0.1</div></td></tr><tr><td style="font-weight:bold;vertical-align:top;">remote_port</td><td style="vertical-align:top;">:</td><td><div>49974</div></td></tr><tr><td style="font-weight:bold;vertical-align:top;">request_method</td><td style="vertical-align:top;">:</td><td><div>GET</div></td></tr><tr><td style="font-weight:bold;vertical-align:top;">request_uri</td><td style="vertical-align:top;">:</td><td><div>/cs183project/default/profile</div></td></tr><tr><td style="font-weight:bold;vertical-align:top;">script_name</td><td style="vertical-align:top;">:</td><td><div></div></td></tr><tr><td style="font-weight:bold;vertical-align:top;">server_name</td><td style="vertical-align:top;">:</td><td><div>eduroam-169-233-194-145.ucsc.edu</div></td></tr><tr><td style="font-weight:bold;vertical-align:top;">server_port</td><td style="vertical-align:top;">:</td><td><div>8000</div></td></tr><tr><td style="font-weight:bold;vertical-align:top;">server_protocol</td><td style="vertical-align:top;">:</td><td><div>HTTP/1.1</div></td></tr><tr><td style="font-weight:bold;vertical-align:top;">server_software</td><td style="vertical-align:top;">:</td><td><div>Rocket 1.2.6</div></td></tr><tr><td style="font-weight:bold;vertical-align:top;">web2py_path</td><td style="vertical-align:top;">:</td><td><div>/Users/EmmyB/Desktop/web2py</div></td></tr><tr><td style="font-weight:bold;vertical-align:top;">web2py_version</td><td style="vertical-align:top;">:</td><td><div>2.16.1-stable+timestamp.2017.11.14.05.54.25</div></td></tr><tr><td style="font-weight:bold;vertical-align:top;">wsgi.errors</td><td style="vertical-align:top;">:</td><td><div>&lt;open file &#x27;&lt;stderr&gt;&#x27;, mode &#x27;w&#x27; at 0x10ce731e0&gt;</div></td></tr><tr><td style="font-weight:bold;vertical-align:top;">wsgi.file_wrapper</td><td style="vertical-align:top;">:</td><td><div>&lt;class wsgiref.util.FileWrapper at 0x10e6ac738&gt;</div></td></tr><tr><td style="font-weight:bold;vertical-align:top;">wsgi.input</td><td style="vertical-align:top;">:</td><td><div>&lt;socket._fileobject object at 0x1159ae150&gt;</div></td></tr><tr><td style="font-weight:bold;vertical-align:top;">wsgi.multiprocess</td><td style="vertical-align:top;">:</td><td><div>False</div></td></tr><tr><td style="font-weight:bold;vertical-align:top;">wsgi.multithread</td><td style="vertical-align:top;">:</td><td><div>True</div></td></tr><tr><td style="font-weight:bold;vertical-align:top;">wsgi.run_once</td><td style="vertical-align:top;">:</td><td><div>False</div></td></tr><tr><td style="font-weight:bold;vertical-align:top;">wsgi.url_scheme</td><td style="vertical-align:top;">:</td><td><div>http</div></td></tr><tr><td style="font-weight:bold;vertical-align:top;">wsgi.version</td><td style="vertical-align:top;">:</td><td><div><table><tr><td><div>1</div></td></tr><tr><td><div>0</div></td></tr></table></div></td></tr><tr><td style="font-weight:bold;vertical-align:top;">wsgi_errors</td><td style="vertical-align:top;">:</td><td><div>&lt;open file &#x27;&lt;stderr&gt;&#x27;, mode &#x27;w&#x27; at 0x10ce731e0&gt;</div></td></tr><tr><td style="font-weight:bold;vertical-align:top;">wsgi_file_wrapper</td><td style="vertical-align:top;">:</td><td><div>&lt;class wsgiref.util.FileWrapper at 0x10e6ac738&gt;</div></td></tr><tr><td style="font-weight:bold;vertical-align:top;">wsgi_input</td><td style="vertical-align:top;">:</td><td><div>&lt;socket._fileobject object at 0x1159ae150&gt;</div></td></tr><tr><td style="font-weight:bold;vertical-align:top;">wsgi_multiprocess</td><td style="vertical-align:top;">:</td><td><div>False</div></td></tr><tr><td style="font-weight:bold;vertical-align:top;">wsgi_multithread</td><td style="vertical-align:top;">:</td><td><div>True</div></td></tr><tr><td style="font-weight:bold;vertical-align:top;">wsgi_run_once</td><td style="vertical-align:top;">:</td><td><div>False</div></td></tr><tr><td style="font-weight:bold;vertical-align:top;">wsgi_url_scheme</td><td style="vertical-align:top;">:</td><td><div>http</div></td></tr><tr><td style="font-weight:bold;vertical-align:top;">wsgi_version</td><td style="vertical-align:top;">:</td><td><div><table><tr><td><div>1</div></td></tr><tr><td><div>0</div></td></tr></table></div></td></tr></table></div></td></tr><tr><td style="font-weight:bold;vertical-align:top;">extension</td><td style="vertical-align:top;">:</td><td><div>html</div></td></tr><tr><td style="font-weight:bold;vertical-align:top;">folder</td><td style="vertical-align:top;">:</td><td><div>/Users/EmmyB/Desktop/web2py/applications/cs183project/</div></td></tr><tr><td style="font-weight:bold;vertical-align:top;">function</td><td style="vertical-align:top;">:</td><td><div>profile</div></td></tr><tr><td style="font-weight:bold;vertical-align:top;">global_settings</td><td style="vertical-align:top;">:</td><td><div><table><tr><td style="font-weight:bold;vertical-align:top;">app_folders</td><td style="vertical-align:top;">:</td><td><div>set([&#x27;/Users/EmmyB/Desktop/web2py/applications/welcome/&#x27;, &#x27;/Users/EmmyB/Desktop/web2py/applications/admin/&#x27;, &#x27;/Users/EmmyB/Desktop/web2py/applications/cs183project/&#x27;])</div></td></tr><tr><td style="font-weight:bold;vertical-align:top;">applications_parent</td><td style="vertical-align:top;">:</td><td><div>/Users/EmmyB/Desktop/web2py</div></td></tr><tr><td style="font-weight:bold;vertical-align:top;">cmd_args</td><td style="vertical-align:top;">:</td><td><div><table></table></div></td></tr><tr><td style="font-weight:bold;vertical-align:top;">cmd_options</td><td style="vertical-align:top;">:</td><td><div>&lt;Values at 0x10e6f0ab8: {&#x27;verbose&#x27;: False, &#x27;ip&#x27;: &#x27;127.0.0.1&#x27;, &#x27;debuglevel&#x27;: 30, &#x27;with_scheduler&#x27;: False, &#x27;shutdown_timeout&#x27;: 5, &#x27;taskbar&#x27;: False, &#x27;with_coverage&#x27;: False, &#x27;pid_filename&#x27;: &#x27;httpserver.pid&#x27;, &#x27;maxthreads&#x27;: None, &#x27;softcron&#x27;: False, &#x27;server_name&#x27;: &#x27;eduroam-169-233-194-145.ucsc.edu&#x27;, &#x27;bpython&#x27;: False, &#x27;nogui&#x27;: False, &#x27;port&#x27;: 8000, &#x27;print_errors&#x27;: True, &#x27;extcron&#x27;: False, &#x27;runcron&#x27;: False, &#x27;run_system_tests&#x27;: False, &#x27;test&#x27;: None, &#x27;folder&#x27;: &#x27;/Users/EmmyB/Desktop/web2py&#x27;, &#x27;config&#x27;: &#x27;&#x27;, &#x27;minthreads&#x27;: None, &#x27;shell&#x27;: None, &#x27;run&#x27;: &#x27;&#x27;, &#x27;log_filename&#x27;: &#x27;httpserver.log&#x27;, &#x27;profiler_dir&#x27;: None, &#x27;args&#x27;: [&#x27;&#x27;], &#x27;socket_timeout&#x27;: 5, &#x27;ssl_ca_certificate&#x27;: None, &#x27;scheduler&#x27;: None, &#x27;interfaces&#x27;: None, &#x27;ssl_private_key&#x27;: &#x27;&#x27;, &#x27;gae&#x27;: None, &#x27;password&#x27;: &#x27;******&#x27;, &#x27;request_queue_size&#x27;: 5, &#x27;ssl_certificate&#x27;: &#x27;&#x27;, &#x27;cronjob&#x27;: False, &#x27;numthreads&#x27;: None, &#x27;quiet&#x27;: False, &#x27;import_models&#x27;: False, &#x27;timeout&#x27;: 10, &#x27;plain&#x27;: False, &#x27;nobanner&#x27;: False}&gt;</div></td></tr><tr><td style="font-weight:bold;vertical-align:top;">db_sessions</td><td style="vertical-align:top;">:</td><td><div>set([&#x27;cs183project&#x27;])</div></td></tr><tr><td style="font-weight:bold;vertical-align:top;">debugging</td><td style="vertical-align:top;">:</td><td><div>False</div></td></tr><tr><td style="font-weight:bold;vertical-align:top;">gluon_parent</td><td style="vertical-align:top;">:</td><td><div>/Users/EmmyB/Desktop/web2py</div></td></tr><tr><td style="font-weight:bold;vertical-align:top;">is_jython</td><td style="vertical-align:top;">:</td><td><div>False</div></td></tr><tr><td style="font-weight:bold;vertical-align:top;">is_py2</td><td style="vertical-align:top;">:</td><td><div>True</div></td></tr><tr><td style="font-weight:bold;vertical-align:top;">is_pypy</td><td style="vertical-align:top;">:</td><td><div>False</div></td></tr><tr><td style="font-weight:bold;vertical-align:top;">is_source</td><td style="vertical-align:top;">:</td><td><div>True</div></td></tr><tr><td style="font-weight:bold;vertical-align:top;">local_hosts</td><td style="vertical-align:top;">:</td><td><div><table><tr><td><div>169.233.194.145</div></td></tr><tr><td><div>::1</div></td></tr><tr><td><div>::ffff:127.0.0.1</div></td></tr><tr><td><div>127.0.0.1</div></td></tr><tr><td><div>eduroam-169-233-194-145.ucsc.edu</div></td></tr></table></div></td></tr><tr><td style="font-weight:bold;vertical-align:top;">web2py_version</td><td style="vertical-align:top;">:</td><td><div>2.16.1-stable+timestamp.2017.11.14.05.54.25</div></td></tr></table></div></td></tr><tr><td style="font-weight:bold;vertical-align:top;">is_https</td><td style="vertical-align:top;">:</td><td><div>False</div></td></tr><tr><td style="font-weight:bold;vertical-align:top;">is_local</td><td style="vertical-align:top;">:</td><td><div>True</div></td></tr><tr><td style="font-weight:bold;vertical-align:top;">is_restful</td><td style="vertical-align:top;">:</td><td><div>False</div></td></tr><tr><td style="font-weight:bold;vertical-align:top;">is_scheduler</td><td style="vertical-align:top;">:</td><td><div>False</div></td></tr><tr><td style="font-weight:bold;vertical-align:top;">is_shell</td><td style="vertical-align:top;">:</td><td><div>False</div></td></tr><tr><td style="font-weight:bold;vertical-align:top;">now</td><td style="vertical-align:top;">:</td><td><div>datetime.datetime(2018, 6, 7, 17, 43, 59, 903601)</div></td></tr><tr><td style="font-weight:bold;vertical-align:top;">raw_args</td><td style="vertical-align:top;">:</td><td><div></div></td></tr><tr><td style="font-weight:bold;vertical-align:top;">raw_extension</td><td style="vertical-align:top;">:</td><td><div>None</div></td></tr><tr><td style="font-weight:bold;vertical-align:top;">url</td><td style="vertical-align:top;">:</td><td><div>/cs183project/default/profile</div></td></tr><tr><td style="font-weight:bold;vertical-align:top;">utcnow</td><td style="vertical-align:top;">:</td><td><div>datetime.datetime(2018, 6, 8, 0, 43, 59, 903610)</div></td></tr><tr><td style="font-weight:bold;vertical-align:top;">wsgi</td><td style="vertical-align:top;">:</td><td><div>&lt;gluon.main.LazyWSGI object at 0x1141898d0&gt;</div></td></tr></table></div>'
tRp60
sS'frames'
p61
(lp62
(dp63
S'file'
p64
S'/Users/EmmyB/Desktop/web2py/gluon/restricted.py'
p65
sS'dump'
p66
(dp67
S'environment'
p68
S"{'A': <class 'gluon.html.A'>, 'ANY_OF': <class 'gluon.validators.ANY_OF'>, 'ASSIGNJS': <function ASSIGNJS>, 'AppConfig': <function AppConfig>, 'Auth': <class 'gluon.tools.Auth'>, 'B': <class 'gluon.html.B'>, 'BEAUTIFY': <class 'gluon.html.BEAUTIFY'>, 'BODY': <class 'gluon.html.BODY'>, 'BR': <class 'gluon.html.BR'>, 'BUTTON': <class 'gluon.html.BUTTON'>, ...}"
p69
sS'ccode'
p70
S'<code object <module> at 0x11577b6b0, file "/Use...cs183project/views/default/profile.html", line 1>'
p71
ssS'lnum'
p72
I219
sS'lines'
p73
(dp74
I214
S'    if environment is None:'
p75
sI215
S'        environment = {}'
p76
sI216
S"    environment['__file__'] = layer"
p77
sI217
S"    environment['__name__'] = '__restricted__'"
p78
sI218
S'    try:'
p79
sI219
S'        exec(ccode, environment)'
p80
sI220
S'    except HTTP:'
p81
sI221
S'        raise'
p82
sI222
S'    except RestrictedError:'
p83
sI223
S'        # do not encapsulate (obfuscate) the original RestrictedError'
p84
ssS'call'
p85
S'(ccode=<code object <module> at 0x11577b6b0, file "/Use...cs183project/views/default/profile.html", line 1>, environment={\'A\': <class \'gluon.html.A\'>, \'ANY_OF\': <class \'gluon.validators.ANY_OF\'>, \'ASSIGNJS\': <function ASSIGNJS>, \'AppConfig\': <function AppConfig>, \'Auth\': <class \'gluon.tools.Auth\'>, \'B\': <class \'gluon.html.B\'>, \'BEAUTIFY\': <class \'gluon.html.BEAUTIFY\'>, \'BODY\': <class \'gluon.html.BODY\'>, \'BR\': <class \'gluon.html.BR\'>, \'BUTTON\': <class \'gluon.html.BUTTON\'>, ...}, layer=\'/Users/EmmyB/Desktop/web2py/applications/cs183project/views/default/profile.html\', scode=\'response.write(\\\'<html>\\\\n  <head>\\\\n    <meta char...ef)));});\\\\n  </script>\\\\n</html>\\\\n", escape=False)\')'
p86
sS'func'
p87
S'restricted'
p88
sa(dp89
g64
S'/Users/EmmyB/Desktop/web2py/applications/cs183project/views/default/profile.html'
p90
sg66
(dp91
S'Code'
p92
S'undefined'
p93
sS'name'
p94
g93
sS'builtintype'
p95
S"<type 'type'>"
p96
sS'Zip'
p97
g93
sS'builtininput'
p98
S'<built-in function input>'
p99
sS'br'
p100
g93
sS'v'
g93
sS'model'
p101
g93
sS'placeholder'
p102
g93
ssg72
I96
sg73
(dp103
I96
S'value'
p104
sI97
S'response.write(\'\\n                </div>\\n                <div v-if="add_listing_page == 0">\\n                    <h5> Description </h5>\\n                    <form>\\n                        Max Occupants:<select class="drop_down_field" v-model="form_max_occ"><option v-for="n in 10" >${n}</option></select>\\n                        Rent: <input type="number" placeholder="$ 0.00/mo" v-model="form_rent">\\n                        start date: <input type="date" v-model="form_start_date">\\n                        end date: <input type="date" v-model="form_end_date">\\n                    </form>\\n                    <button v-on:click="next_list_page()">\\n                        <i class="fa fa-arrow-right"></i>\\n                    </button>\\n                </div>\\n                <div v-if="add_listing_page == 1">\\n                    <h5> Review Listing </h5>\\n                    <div class="container padded">\\n                        <div class="half">\\n                            <h6>Property</h6>\\n                            <p>Street:</p>\\n                            <p>City:</p>\\n                            <p>Zip Code:</p>\\n                            <p>Sate:</p>\\n                        </div>\\n                        <div class="half">\\n                            <h6> Details </h6>\\n                            <p>Max Occupants</p>\\n                            <p>Rent </p>\\n                            <p>Start Date: </p>\\n                            <p>End Date </p>\\n                        </div>\\n                    </div>\\n                    <span>\\n                        <button v-on:click="prev_list_page()">\\n                            <i class="fa fa-arrow-left"></i>\\n                        </button>\\n                        <button>\\n                            <i class="fa fa-paper-plane"></i> Post\\n                        </button>\\n                    </span>\\n                </div>\\n            </div>\\n\\n            <div class="property_info ">\\n                <div class="right_side_banner">\\n                    <h4>My Properties</h4>\\n                </div>\\n\\n                <div class="owned_properties container padded" v-for="p in owned_properties">\\n                    <div class="padded half">\\n                        <h6>Street:</h6><p>${p.street}</p>\\n                        <h6>City:</h6> <p>${p.city}</p>\\n                        <h6>Zip Code:</h6> <p>${p.zip}</p>\\n                        <h6>Sate:</h6><p>${p.state_}</p>\\n                    </div>\\n                    <div class="padded half">\\n                        <div class="right">\\n                            <button v-on:click="add_listing_button(p._idx)">\\n                                <i class="fa fa-paper-plane"></i>  Post\\n                            </button>\\n                        </div>\\n                        <h6>Property Type</h6><p>${p.property_type}</p>\\n                        <h6>Number of Bedrooms</h6> <p>${p.num_bedrooms}</p>\\n                        <h6>Number of full bathrooms</h6><p>${p.num_fullbaths}</p>\\n                        <h6>Number of half bathrooms</h6> <p>${p.num_halfbaths}</p>\\n                    </div>\\n                </div>\\n            </div>\\n\\n            <div class="group_info">\\n                <div class="right_side_banner">\\n                    <h4>Groups</h4>\\n                </div>\\n                <!--<div class="my_groups"> -->\\n                    <div class="one_group container" v-for="group in groups">\\n                        <div class="container padded">\\n                            <div class="quarter">\\n                                <h6 class="">${group.group_name}</h6>\\n                            </div>\\n                            <div class="button_bar threequarters padded right">\\n                                <button class="btn rounded">\\n                                        <i class="fa fa-plus"></i>\\n                                </button>\\n                                <button v-if="!group.is_editing" class="btn rounded" v-on:click="edit_group_button(group.group_id)">\\n                                    <i class="fa fa-edit"></i>\\n                                </button>\\n                                <span v-if="group.is_editing" class="button_list right">\\n\\n                                    <button class="btn rounded delete" v-on:click="delete_group(group.group_id)">\\n                                        <i class="fa fa-trash"></i>\\n                                    </button>\\n                                    <button class="btn rounded" v-on:click="cancel_edit_group(group.group_id)">\\n                                        <i class="fa fa-times"></i>\\n                                    </button>\\n                                </span>\\n\\n\\n\\n                            </div>\\n\\n                        </div>\\n                        <div class="padded" id="member_list">\\n                            <table class="members">\\n                                <thead>\\n                                    <th>Members</th>\\n                                </thead>\\n                                <tbody >\\n                                    <tr v-for="mem in group.group_members">\\n                                        <td>${mem.user_email}</td>\\n                                    </tr>\\n                                </tbody>\\n                            </table>\\n                        </div>\\n\\n                    </div>\\n                <!--</div> -->\\n\\n                <div v-if="is_adding_group" class="group_search padded">\\n                    <span class="padded right">\\n                        <button v-if="is_adding_group" class="btn padded rounded" v-on:click="submit_group_button()" >\\n                            <i class="fa fa-plus"></i> Submit\\n                        </button>\\n                        <button v-if="is_adding_group" class="btn padded rounded" v-on:click="cancel_add_group()">\\n                            <i class="fa fa-times"></i> Cancel\\n                        </button>\\n                    </span>\\n                    <h5 class="title"> New Group </h5>\\n                    <div v-if="is_adding_group" class="members">\\n                        <form class="padded">\\n                            <input class="string" v-model="form_name" placeholder="Enter your Group Name" type="text">\\n                        </form>\\n                        <div class="padded">\\n                            <table class="member_table padded">\\n                                <thead>\\n                                    <th>Members</th>\\n                                    <th></th>\\n                                    <th></th>\\n                                </thead>\\n                                <tbody>\\n                                    <tr v-for="mem in members">\\n                                        <td>\\n                                        \', escape=False)'
p105
sI98
S'response.write(A(IMG(_src=URL(\'static/images\', \'default_user.jpg\'), _alt="default user image")))'
p106
sI99
S'response.write(\'\\n                                        </td>\\n                                        <td>${mem.first_name} ${mem.last_name}</td>\\n                                        <td><i class="fa fa-trash btn" v-on:click="remove_from_group(mem, mem._idx)"></i></td>\\n                                    </tr>\\n                                </tbody>\\n                            </table>\\n                        </div>\\n                    </div>\\n                    <h5 class="title">Add Groupmates</h5>\\n                    <div class="padded">\\n                        <form class="padded">\\n                            <input class="string" v-model="form_user_search" placeholder="Search" type="text">\\n                        </form>\\n                        <span class="padded">\\n                            <button class="btn padded rounded" v-on:click="search_user()">\\n                                <i class="fa fa-search"></i>\\n                            </button>\\n                            <button class="btn padded rounded" v-on:click="clear_user_button()">\\n                                <i class="fa fa-times"></i>\\n                            </button>\\n                        </span>\\n                        <table class="user_table">\\n                            <thead>\\n                                <tr>\\n                                    <th>Photo</th>\\n                                    <th>User</th>\\n                                    <th>add ?</th>\\n                                </tr>\\n                            </thead>\\n                            <tbody>\\n                                <tr v-for="usr in users">\\n                                    <td>${usr.picture}</td>\\n                                    <td>${usr.first_name} ${usr.last_name}</td>\\n                                    <td><i class="fa fa-plus btn" v-on:click="add_to_group(usr, usr._idx)"></i></td>\\n                                </tr>\\n                            </tbody>\\n                        </table>\\n                        <div v-if="has_more" class="show_more">\\n                            <button class="btn btn-default rounded" v-on:click="get_more()">\\n                                <i class="fa fa-ellipsis-h"></i> Load more\\n                            </button>\\n                        </div>\\n                    </div>\\n                </div>\\n            </div>\\n        </div>\\n\\n    </div>\\n    </div>\\n    </div>\\n</div>\\n\\n<script src="\', escape=False)'
p107
sI100
S"response.write(URL('static', 'js/default_profile.js'))"
p108
sI101
S'response.write(\'"></script>\', escape=False)'
p109
sI102
S'response.write(\'\\n    </main>\\n    <footer class="black">\\n      <div class="silver center padded social">\\n        <a class="fa fa-facebook" href="https://www.facebook.com/sharer/sharer.php?u={url}"></a>\\n        <a class="fa fa-twitter" href="https://twitter.com/home?status={url}"></a>\\n        <a class="fa fa-google" href="https://plus.google.com/share?url={url}"></a>\\n      </div>\\n      <div class="container padded max900">\\n        <div class="fill">\\n          Copyright @ 2016\\n        </div>\\n      </div>\\n    </footer>\\n  </body>\\n  <script src="\', escape=False)'
p110
sI103
S"response.write(URL('static','js/marked.min.js'))"
p111
sI104
S'response.write(\'"></script>\\n  <script src="\', escape=False)'
p112
sI105
S"response.write(URL('static','js/vue.min.js'))"
p113
sI106
S'response.write(\'"></script>\\n  \', escape=False)'
p114
sI87
S"    response.write('\\n                <!--This should be the users uploaded profile picture.... if it ever works -->\\n                ', escape=False)"
p115
sI88
S'    response.write(A(IMG(_src=URL(\'default\', \'download\', args=pic), _alt=" user image")))'
p116
sI89
S"    response.write('\\n            ', escape=False)"
p117
sI90
S'    pass'
p118
sI91
S'response.write(\'\\n\\n                <div class="user_text">\\n                    <h3>\', escape=False)'
p119
sI92
S'response.write(auth.user.first_name)'
p120
sI93
S"response.write(' ', escape=False)"
p121
sI94
S'response.write(auth.user.last_name)'
p122
sI95
S'response.write(\'</h3>\\n                    <h6>My Rentals</h6>\\n                    <h6>My Listings</h6>\\n                    <h6>Interesting Properties</h6>\\n\\n\\t\\t\\t\\t\\t<div class="add_property">\\n\\n            \\t\\t</div>\\n\\t\\t\\t\\t</div>\\n\\n            </div>\\n            <div class="button_list container">\\n                <div class="add_btn half">\\n                     <button v-if="!is_adding_property" class="rounded" v-on:click="add_property_button()" >\\n                        <i class="fa fa-plus"></i>\\n                        Add Property\\n                     </button>\\n                     <button v-if="is_adding_property" class="rounded" v-on:click="add_property_button()" >\\n                        <i class="fa fa-close"></i>\\n                        Close\\n                    </button>\\n                </div>\\n                <div class="half group_btn">\\n                    <button v-if="!is_adding_group" class="rounded " v-on:click="add_group_button()">\\n                            <i class="fa fa-plus"></i> Create Group\\n                    </button>\\n                </div>\\n            </div>\\n\\n\\n        </div>\\n\\n        <div class="right_side container threequarters max900 compressible">\\n            <div class="add_property_div padded container" id="add_property_div" style="display:none">\\n                <h4>Add a new property </h4>\\n                <div v-if="add_property_page == 0">\\n                    <h5>What is the address?</h5>\\n                    <form>\\n                        Street: <input type="text" name="street" v-model="form_street" placeholder="Street..."><br>\\n                        City: <input type="text" name="city" v-model="form_city" placeholder="City..."><br>\\n                        Zip Code: <input type="text" name="zip" v-model="form_zip" placeholder="Zip code..."><br>\\n                        State: <input type="text" name="state" v-model="form_state_" placeholder="City..."><br>\\n                    </form>\\n\\n                </div>\\n                <div v-if="add_property_page == 1">\\n                    <h5>Tell us about the property</h5>\\n                    <form>\\n                        <label>Property Type </label><br>\\n                            <select class="drop_down_field"  name="p_type" v-model="p_type">\\n                                <!--For this one, I need to get the .id of the selected value\\n                                    But I think I can just grab it before the post request\\n                                 -->\\n                                <option v-for="p in property_types">${p.p_type}</option>\\n                            </select>\\n                        <label>Number of Bedrooms </label><br>\\n                        <select class="drop_down_field" name="num_bedrooms" v-model="num_bedrooms" >\\n                            <option v-for="n in 10" >${n}</option>\\n                        </select>\\n                        <div class="container">\\n\\n                           <div class="half">\\n                                <label>Full Bathrooms </label><br>\\n                                    <select class="drop_down_field" name="num_fullbaths" v-model="num_fullbaths">\\n                                        <option v-for="n in 10" >${n}</option>\\n                                    </select>\\n                            </div>\\n                            <div class="half">\\n                                <label>Half Bathrooms </label><br>\\n                                    <select class="drop_down_field" name="num_halfbaths" v-model="num_halfbaths">\\n                                        <option v-for="n in 10">${n}</option>\\n                                    </select>\\n                            </div>\\n                        </div>\\n\\n                    </form>\\n                </div>\\n                <div class="button_bar padded">\\n                    <span v-if="add_property_page == last_add_property_page">\\n                        <button v-on:click="prev_page">\\n                            <i class="fas fa-arrow-left"></i>\\n                        </button>\\n                        <button v-on:click="add_property">\\n                            <i class="far fa-share-square"></i>\\n                            Submit\\n                        </button>\\n                    </span>\\n                    <span v-if="add_property_page == 0">\\n                        <button v-on:click="next_page">\\n                            <i class="fas fa-arrow-right"></i>\\n                        </button>\\n                    </span>\\n\\n                </div>\\n\\n            </div>\\n\\n            <div class="add_listing_div padded container" id="add_listing_div" style="display:none">\\n                <h4>List Property</h4>\\n                <button class="right" v-on:click="add_listing_button(listing_idx)"><i class="fa fa-times"></i> Cancel</button>\\n                <h6>Property</h6>\\n                <div v-for:="(value, key) in owned_properities[listing_idx]">\\n                    {key}}: \', escape=False)'
p123
ssg85
S'()'
p124
sg87
S'<module>'
p125
sasS'pyver'
p126
S'Python 2.7.14: /anaconda3/envs/py27/bin/python (prefix: /anaconda3/envs/py27)'
p127
sS'session'
p128
g59
(S's\x0e\n\x00\x00<div><table><tr><td style="font-weight:bold;vertical-align:top;">auth</td><td style="vertical-align:top;">:</td><td><div><table><tr><td style="font-weight:bold;vertical-align:top;">expiration</td><td style="vertical-align:top;">:</td><td><div>3600</div></td></tr><tr><td style="font-weight:bold;vertical-align:top;">hmac_key</td><td style="vertical-align:top;">:</td><td><div>2a6d49bc-0ea3-4fb5-80a9-431a18ebd59b</div></td></tr><tr><td style="font-weight:bold;vertical-align:top;">last_visit</td><td style="vertical-align:top;">:</td><td><div>datetime.datetime(2018, 6, 7, 17, 39, 32, 125704)</div></td></tr><tr><td style="font-weight:bold;vertical-align:top;">remember_me</td><td style="vertical-align:top;">:</td><td><div>False</div></td></tr><tr><td style="font-weight:bold;vertical-align:top;">user</td><td style="vertical-align:top;">:</td><td><div><table><tr><td style="font-weight:bold;vertical-align:top;">email</td><td style="vertical-align:top;">:</td><td><div>emmicourt@gmail.com</div></td></tr><tr><td style="font-weight:bold;vertical-align:top;">first_name</td><td style="vertical-align:top;">:</td><td><div>Emily</div></td></tr><tr><td style="font-weight:bold;vertical-align:top;">id</td><td style="vertical-align:top;">:</td><td><div>1L</div></td></tr><tr><td style="font-weight:bold;vertical-align:top;">last_name</td><td style="vertical-align:top;">:</td><td><div>Bettencourt</div></td></tr><tr><td style="font-weight:bold;vertical-align:top;">registration_id</td><td style="vertical-align:top;">:</td><td><div></div></td></tr><tr><td style="font-weight:bold;vertical-align:top;">registration_key</td><td style="vertical-align:top;">:</td><td><div></div></td></tr><tr><td style="font-weight:bold;vertical-align:top;">reset_password_key</td><td style="vertical-align:top;">:</td><td><div></div></td></tr></table></div></td></tr><tr><td style="font-weight:bold;vertical-align:top;">user_groups</td><td style="vertical-align:top;">:</td><td><div><table><tr><td style="font-weight:bold;vertical-align:top;">1</td><td style="vertical-align:top;">:</td><td><div>user_1</div></td></tr></table></div></td></tr></table></div></td></tr><tr><td style="font-weight:bold;vertical-align:top;">flash</td><td style="vertical-align:top;">:</td><td><div>None</div></td></tr><tr><td style="font-weight:bold;vertical-align:top;">last_orderby</td><td style="vertical-align:top;">:</td><td><div>None</div></td></tr><tr><td style="font-weight:bold;vertical-align:top;">last_query</td><td style="vertical-align:top;">:</td><td><div>db.listings.id&gt;0</div></td></tr></table></div>'
tRp129
sS'etype'
p130
S"<type 'exceptions.NameError'>"
p131
sS'date'
p132
S'Thu Jun  7 17:43:59 2018'
p133
sS'response'
p134
g59
(S's\xe2\'\x00\x00<div><table><tr><td style="font-weight:bold;vertical-align:top;">body</td><td style="vertical-align:top;">:</td><td><div>&lt;cStringIO.StringO object at 0x115369fb8&gt;</div></td></tr><tr><td style="font-weight:bold;vertical-align:top;">cookies</td><td style="vertical-align:top;">:</td><td><div><table><tr><td style="font-weight:bold;vertical-align:top;">session_id_cs183project</td><td style="vertical-align:top;">:</td><td><div>2:516194e3-4c76-406f-ad09-498e70a15419<table><tr><td style="font-weight:bold;vertical-align:top;">comment</td><td style="vertical-align:top;">:</td><td><div></div></td></tr><tr><td style="font-weight:bold;vertical-align:top;">domain</td><td style="vertical-align:top;">:</td><td><div></div></td></tr><tr><td style="font-weight:bold;vertical-align:top;">expires</td><td style="vertical-align:top;">:</td><td><div></div></td></tr><tr><td style="font-weight:bold;vertical-align:top;">httponly</td><td style="vertical-align:top;">:</td><td><div></div></td></tr><tr><td style="font-weight:bold;vertical-align:top;">max-age</td><td style="vertical-align:top;">:</td><td><div></div></td></tr><tr><td style="font-weight:bold;vertical-align:top;">path</td><td style="vertical-align:top;">:</td><td><div>/</div></td></tr><tr><td style="font-weight:bold;vertical-align:top;">secure</td><td style="vertical-align:top;">:</td><td><div></div></td></tr><tr><td style="font-weight:bold;vertical-align:top;">version</td><td style="vertical-align:top;">:</td><td><div></div></td></tr></table></div></td></tr></table></div></td></tr><tr><td style="font-weight:bold;vertical-align:top;">delimiters</td><td style="vertical-align:top;">:</td><td><div><table><tr><td><div>{{</div></td></tr><tr><td><div>}}</div></td></tr></table></div></td></tr><tr><td style="font-weight:bold;vertical-align:top;">files</td><td style="vertical-align:top;">:</td><td><div><table><tr><td><div>/cs183project/static/js/jquery.js</div></td></tr><tr><td><div>/cs183project/static/css/calendar.css</div></td></tr><tr><td><div>/cs183project/static/js/calendar.js</div></td></tr><tr><td><div>/cs183project/static/js/web2py.js</div></td></tr></table></div></td></tr><tr><td style="font-weight:bold;vertical-align:top;">flash</td><td style="vertical-align:top;">:</td><td><div></div></td></tr><tr><td style="font-weight:bold;vertical-align:top;">form_label_separator</td><td style="vertical-align:top;">:</td><td><div></div></td></tr><tr><td style="font-weight:bold;vertical-align:top;">formstyle</td><td style="vertical-align:top;">:</td><td><div>bootstrap3_inline</div></td></tr><tr><td style="font-weight:bold;vertical-align:top;">generic_patterns</td><td style="vertical-align:top;">:</td><td><div><table><tr><td><div>*</div></td></tr></table></div></td></tr><tr><td style="font-weight:bold;vertical-align:top;">google_analytics_id</td><td style="vertical-align:top;">:</td><td><div>None</div></td></tr><tr><td style="font-weight:bold;vertical-align:top;">headers</td><td style="vertical-align:top;">:</td><td><div><table><tr><td style="font-weight:bold;vertical-align:top;">X-Powered-By</td><td style="vertical-align:top;">:</td><td><div>web2py</div></td></tr></table></div></td></tr><tr><td style="font-weight:bold;vertical-align:top;">logo</td><td style="vertical-align:top;">:</td><td><div><a class="navbar-brand" href="http://www.web2py.com/" id="web2py-logo"><b>web<span>2</span>py</b>&trade;&nbsp;</a></div></td></tr><tr><td style="font-weight:bold;vertical-align:top;">menu</td><td style="vertical-align:top;">:</td><td><div><table><tr><td><div><table><tr><td><div>Home</div></td></tr><tr><td><div>False</div></td></tr><tr><td><div>/cs183project/default/index</div></td></tr><tr><td><div><table></table></div></td></tr></table></div></td></tr><tr><td><div><table><tr><td><div>My Sites</div></td></tr><tr><td><div>False</div></td></tr><tr><td><div>/admin/default/site</div></td></tr></table></div></td></tr><tr><td><div><table><tr><td><div>This App</div></td></tr><tr><td><div>False</div></td></tr><tr><td><div>#</div></td></tr><tr><td><div><table><tr><td><div><table><tr><td><div>Design</div></td></tr><tr><td><div>False</div></td></tr><tr><td><div>/admin/default/design/cs183project</div></td></tr></table></div></td></tr><tr><td><div><li class="divider"></li></div></td></tr><tr><td><div><table><tr><td><div>Controller</div></td></tr><tr><td><div>False</div></td></tr><tr><td><div>/admin/default/edit/cs183project/controllers/default.py</div></td></tr></table></div></td></tr><tr><td><div><table><tr><td><div>View</div></td></tr><tr><td><div>False</div></td></tr><tr><td><div>/admin/default/edit/cs183project/views/default/profile.html</div></td></tr></table></div></td></tr><tr><td><div><table><tr><td><div>DB Model</div></td></tr><tr><td><div>False</div></td></tr><tr><td><div>/admin/default/edit/cs183project/models/db.py</div></td></tr></table></div></td></tr><tr><td><div><table><tr><td><div>Menu Model</div></td></tr><tr><td><div>False</div></td></tr><tr><td><div>/admin/default/edit/cs183project/models/menu.py</div></td></tr></table></div></td></tr><tr><td><div><table><tr><td><div>Config.ini</div></td></tr><tr><td><div>False</div></td></tr><tr><td><div>/admin/default/edit/cs183project/private/appconfig.ini</div></td></tr></table></div></td></tr><tr><td><div><table><tr><td><div>Layout</div></td></tr><tr><td><div>False</div></td></tr><tr><td><div>/admin/default/edit/cs183project/views/layout.html</div></td></tr></table></div></td></tr><tr><td><div><table><tr><td><div>Stylesheet</div></td></tr><tr><td><div>False</div></td></tr><tr><td><div>/admin/default/edit/cs183project/static/css/web2py-bootstrap3.css</div></td></tr></table></div></td></tr><tr><td><div><table><tr><td><div>Database</div></td></tr><tr><td><div>False</div></td></tr><tr><td><div>/cs183project/appadmin/index</div></td></tr></table></div></td></tr><tr><td><div><table><tr><td><div>Errors</div></td></tr><tr><td><div>False</div></td></tr><tr><td><div>/admin/default/errors/cs183project</div></td></tr></table></div></td></tr><tr><td><div><table><tr><td><div>About</div></td></tr><tr><td><div>False</div></td></tr><tr><td><div>/admin/default/about/cs183project</div></td></tr></table></div></td></tr></table></div></td></tr></table></div></td></tr></table></div></td></tr><tr><td style="font-weight:bold;vertical-align:top;">meta</td><td style="vertical-align:top;">:</td><td><div><table><tr><td style="font-weight:bold;vertical-align:top;">author</td><td style="vertical-align:top;">:</td><td><div>Your Name &lt;you@example.com&gt;</div></td></tr><tr><td style="font-weight:bold;vertical-align:top;">description</td><td style="vertical-align:top;">:</td><td><div>a cool new app</div></td></tr><tr><td style="font-weight:bold;vertical-align:top;">generator</td><td style="vertical-align:top;">:</td><td><div>Web2py Web Framework</div></td></tr><tr><td style="font-weight:bold;vertical-align:top;">keywords</td><td style="vertical-align:top;">:</td><td><div><table><tr><td><div>web2py</div></td></tr><tr><td><div>python</div></td></tr><tr><td><div>framework</div></td></tr></table></div></td></tr></table></div></td></tr><tr><td style="font-weight:bold;vertical-align:top;">models_to_run</td><td style="vertical-align:top;">:</td><td><div><table><tr><td><div>^\\w+\\.py$</div></td></tr><tr><td><div>^default/\\w+\\.py$</div></td></tr><tr><td><div>^default/profile/\\w+\\.py$</div></td></tr></table></div></td></tr><tr><td style="font-weight:bold;vertical-align:top;">postprocessing</td><td style="vertical-align:top;">:</td><td><div><table></table></div></td></tr><tr><td style="font-weight:bold;vertical-align:top;">session_client</td><td style="vertical-align:top;">:</td><td><div>127.0.0.1</div></td></tr><tr><td style="font-weight:bold;vertical-align:top;">session_cookie_compression_level</td><td style="vertical-align:top;">:</td><td><div>None</div></td></tr><tr><td style="font-weight:bold;vertical-align:top;">session_cookie_expires</td><td style="vertical-align:top;">:</td><td><div>None</div></td></tr><tr><td style="font-weight:bold;vertical-align:top;">session_data_name</td><td style="vertical-align:top;">:</td><td><div>session_data_cs183project</div></td></tr><tr><td style="font-weight:bold;vertical-align:top;">session_db_record_id</td><td style="vertical-align:top;">:</td><td><div>2L</div></td></tr><tr><td style="font-weight:bold;vertical-align:top;">session_db_table</td><td style="vertical-align:top;">:</td><td><div>&lt;Table web2py_session_cs183project (id, locked, client_ip, created_datetime, modified_datetime, unique_key, session_data)&gt;</div></td></tr><tr><td style="font-weight:bold;vertical-align:top;">session_db_unique_key</td><td style="vertical-align:top;">:</td><td><div>516194e3-4c76-406f-ad09-498e70a15419</div></td></tr><tr><td style="font-weight:bold;vertical-align:top;">session_hash</td><td style="vertical-align:top;">:</td><td><div>a2fc9f79781c9106e664bf5aee10845c</div></td></tr><tr><td style="font-weight:bold;vertical-align:top;">session_id</td><td style="vertical-align:top;">:</td><td><div>2:516194e3-4c76-406f-ad09-498e70a15419</div></td></tr><tr><td style="font-weight:bold;vertical-align:top;">session_id_name</td><td style="vertical-align:top;">:</td><td><div>session_id_cs183project</div></td></tr><tr><td style="font-weight:bold;vertical-align:top;">session_masterapp</td><td style="vertical-align:top;">:</td><td><div>cs183project</div></td></tr><tr><td style="font-weight:bold;vertical-align:top;">session_new</td><td style="vertical-align:top;">:</td><td><div>False</div></td></tr><tr><td style="font-weight:bold;vertical-align:top;">session_storage_type</td><td style="vertical-align:top;">:</td><td><div>db</div></td></tr><tr><td style="font-weight:bold;vertical-align:top;">status</td><td style="vertical-align:top;">:</td><td><div>200</div></td></tr><tr><td style="font-weight:bold;vertical-align:top;">subtitle</td><td style="vertical-align:top;">:</td><td><div></div></td></tr><tr><td style="font-weight:bold;vertical-align:top;">title</td><td style="vertical-align:top;">:</td><td><div>Cs183Project</div></td></tr><tr><td style="font-weight:bold;vertical-align:top;">view</td><td style="vertical-align:top;">:</td><td><div>default/profile.html</div></td></tr></table></div>'
tRp135
sS'locals'
p136
(dp137
S'Service'
p138
S"<class 'gluon.tools.Service'>"
p139
sS'FORMAT'
p140
S"'%(asctime)s %(levelname)s %(process)s %(thread)s %(funcName)s():%(lineno)d %(message)s'"
p141
sS'PY2'
p142
S'True'
p143
sS'OBJECT'
p144
S"<class 'gluon.html.OBJECT'>"
p145
sS'SQLDB'
p146
S"<class 'pydal.base.DAL'>"
p147
sg128
S"<Storage {'last_query': 'db.listings.id>0', '_au...617f6', '6f4f754c-12eb-475b-8051-ed9210a8db16']}>"
p148
sS'LINK'
p149
S"<class 'gluon.html.LINK'>"
p150
sS'BR'
p151
S"<class 'gluon.html.BR'>"
p152
sS'local_import'
p153
S'<function <lambda>>'
p154
sS'OPTGROUP'
p155
S"<class 'gluon.html.OPTGROUP'>"
p156
sS'__package__'
p157
S'None'
p158
sS'PRE'
p159
S"<class 'gluon.html.PRE'>"
p160
sS'IS_INT_IN_RANGE'
p161
S"<class 'gluon.validators.IS_INT_IN_RANGE'>"
p162
sS'to_bytes'
p163
S'<function to_bytes>'
p164
sS'IS_LOWER'
p165
S"<class 'gluon.validators.IS_LOWER'>"
p166
sS'IS_STRONG'
p167
S"<class 'gluon.validators.IS_STRONG'>"
p168
sS'cache'
p169
S'<gluon.cache.Cache object>'
p170
sS'IS_IN_DB'
p171
S"<class 'gluon.validators.IS_IN_DB'>"
p172
sS'TAG'
p173
S'<gluon.html.__TAG__ object>'
p174
sS'SQLField'
p175
S"<class 'pydal.objects.Field'>"
p176
sS'mail'
p177
S'<gluon.tools.Mail object>'
p178
sS'logger'
p179
S'<logging.Logger object>'
p180
sS'BODY'
p181
S"<class 'gluon.html.BODY'>"
p182
sS'IS_DATE_IN_RANGE'
p183
S"<class 'gluon.validators.IS_DATE_IN_RANGE'>"
p184
sS'IFRAME'
p185
S"<class 'gluon.html.IFRAME'>"
p186
sS'URL'
p187
S'<function URL>'
p188
sS'__file__'
p189
S"'/Users/EmmyB/Desktop/web2py/applications/cs183project/views/default/profile.html'"
p190
sS'db'
p191
S'<DAL uri="sqlite://storage.sqlite">'
p192
sS'auth'
p193
S'<gluon.tools.Auth object>'
p194
sS'P'
S"<class 'gluon.html.P'>"
p195
sS'TFOOT'
p196
S"<class 'gluon.html.TFOOT'>"
p197
sS'iteritems'
p198
S'<function <lambda>>'
p199
sS'XHTML'
p200
S"<class 'gluon.html.XHTML'>"
p201
sS'datetime'
p202
S"<module 'datetime' from '/anaconda3/envs/py27/lib/python2.7/lib-dynload/datetime.so'>"
p203
sS'ON'
p204
g143
sS'OL'
p205
S"<class 'gluon.html.OL'>"
p206
sS'TEXTAREA'
p207
S"<class 'gluon.html.TEXTAREA'>"
p208
sS'MENU'
p209
S"<class 'gluon.html.MENU'>"
p210
sS'IS_IMAGE'
p211
S"<class 'gluon.validators.IS_IMAGE'>"
p212
sS'EM'
p213
S"<class 'gluon.html.EM'>"
p214
sS'CODE'
p215
S"<class 'gluon.html.CODE'>"
p216
sS'HTTP'
p217
S"<class 'gluon.http.HTTP'>"
p218
sS'HR'
p219
S"<class 'gluon.html.HR'>"
p220
sS'IS_DATETIME'
p221
S"<class 'gluon.validators.IS_DATETIME'>"
p222
sS'reduce'
p223
S'<built-in function reduce>'
p224
sS'STYLE'
p225
S"<class 'gluon.html.STYLE'>"
p226
sS'LABEL'
p227
S"<class 'gluon.html.LABEL'>"
p228
sS'CLEANUP'
p229
S"<class 'gluon.validators.CLEANUP'>"
p230
sS'plugins'
p231
S'<gluon.tools.PluginManager object>'
p232
sS'SELECT'
p233
S"<class 'gluon.html.SELECT'>"
p234
sS'CENTER'
p235
S"<class 'gluon.html.CENTER'>"
p236
sS'Auth'
p237
S"<class 'gluon.tools.Auth'>"
p238
sS'DEVELOPMENT_MENU'
p239
g143
sS'__builtins__'
p240
S"{'ArithmeticError': <type 'exceptions.ArithmeticError'>, 'AssertionError': <type 'exceptions.AssertionError'>, 'AttributeError': <type 'exceptions.AttributeError'>, 'BaseException': <type 'exceptions.BaseException'>, 'BufferError': <type 'exceptions.BufferError'>, 'BytesWarning': <type 'exceptions.BytesWarning'>, 'DeprecationWarning': <type 'exceptions.DeprecationWarning'>, 'EOFError': <type 'exceptions.EOFError'>, 'Ellipsis': Ellipsis, 'EnvironmentError': <type 'exceptions.EnvironmentError'>, ...}"
p241
sS'HTML'
p242
S"<class 'gluon.html.HTML'>"
p243
sS'SQLFORM'
p244
S"<class 'gluon.sqlhtml.SQLFORM'>"
p245
sS'LOAD'
p246
S'<function LOAD>'
p247
sS'redirect'
p248
S'<function redirect>'
p249
sS'FIELDSET'
p250
S"<class 'gluon.html.FIELDSET'>"
p251
sS'IS_EQUAL_TO'
p252
S"<class 'gluon.validators.IS_EQUAL_TO'>"
p253
sS'embed64'
p254
S'<function embed64>'
p255
sS'IS_LIST_OF'
p256
S"<class 'gluon.validators.IS_LIST_OF'>"
p257
sS'get_user_id'
p258
S'<function get_user_id>'
p259
sS'EMBED'
p260
S"<class 'gluon.html.EMBED'>"
p261
sS'_'
S'<function _>'
p262
sS'logging'
p263
S"<module 'logging' from '/anaconda3/envs/py27/lib/python2.7/logging/__init__.pyc'>"
p264
sS'myconf'
p265
S"{'forms': {'formstyle': 'bootstrap3_inline', 'se...': {'names': 'localhost:*, 127.0.0.1:*, *:*, *'}}"
p266
sS'H2'
p267
S"<class 'gluon.html.H2'>"
p268
sS'H3'
p269
S"<class 'gluon.html.H3'>"
p270
sS'AppConfig'
p271
S'<function AppConfig>'
p272
sS'H1'
p273
S"<class 'gluon.html.H1'>"
p274
sS'H6'
p275
S"<class 'gluon.html.H6'>"
p276
sS'H4'
p277
S"<class 'gluon.html.H4'>"
p278
sS'H5'
p279
S"<class 'gluon.html.H5'>"
p280
sS'UL'
p281
S"<class 'gluon.html.UL'>"
p282
sS'IS_UPPER'
p283
S"<class 'gluon.validators.IS_UPPER'>"
p284
sS'xmlescape'
p285
S'<function xmlescape>'
p286
sS'IS_TIME'
p287
S"<class 'gluon.validators.IS_TIME'>"
p288
sS'OPTION'
p289
S"<class 'gluon.html.OPTION'>"
p290
sS'TITLE'
p291
S"<class 'gluon.html.TITLE'>"
p292
sS'CRYPT'
p293
S"<class 'gluon.validators.CRYPT'>"
p294
sS'IS_EMPTY_OR'
p295
S"<class 'gluon.validators.IS_EMPTY_OR'>"
p296
sS'MARKMIN'
p297
S"<class 'gluon.html.MARKMIN'>"
p298
sS'INPUT'
p299
S"<class 'gluon.html.INPUT'>"
p300
sS'STRONG'
p301
S"<class 'gluon.html.STRONG'>"
p302
sS'COL'
p303
S"<class 'gluon.html.COL'>"
p304
sS'service'
p305
S'<gluon.tools.Service object>'
p306
sS'SCRIPT'
p307
S"<class 'gluon.html.SCRIPT'>"
p308
sS'TABLE'
p309
S"<class 'gluon.html.TABLE'>"
p310
sS'IS_IPV4'
p311
S"<class 'gluon.validators.IS_IPV4'>"
p312
sS'IS_LENGTH'
p313
S"<class 'gluon.validators.IS_LENGTH'>"
p314
sS'IS_IPV6'
p315
S"<class 'gluon.validators.IS_IPV6'>"
p316
sS'XML'
p317
S"<class 'gluon.html.XML'>"
p318
sS'B'
S"<class 'gluon.html.B'>"
p319
sS'IMG'
p320
S"<class 'gluon.html.IMG'>"
p321
sS'SQLTABLE'
p322
S"<class 'gluon.sqlhtml.SQLTABLE'>"
p323
sS'IS_MATCH'
p324
S"<class 'gluon.validators.IS_MATCH'>"
p325
sS'IS_ALPHANUMERIC'
p326
S"<class 'gluon.validators.IS_ALPHANUMERIC'>"
p327
sS'get_user_email'
p328
S'<function get_user_email>'
p329
sS'SPAN'
p330
S"<class 'gluon.html.SPAN'>"
p331
sS'IS_JSON'
p332
S"<class 'gluon.validators.IS_JSON'>"
p333
sS'IS_IPADDRESS'
p334
S"<class 'gluon.validators.IS_IPADDRESS'>"
p335
sS'IS_SLUG'
p336
S"<class 'gluon.validators.IS_SLUG'>"
p337
sS'BEAUTIFY'
p338
S"<class 'gluon.html.BEAUTIFY'>"
p339
sS'META'
p340
S"<class 'gluon.html.META'>"
p341
sS'BUTTON'
p342
S"<class 'gluon.html.BUTTON'>"
p343
sS'IS_DATE'
p344
S"<class 'gluon.validators.IS_DATE'>"
p345
sS'IS_EMAIL'
p346
S"<class 'gluon.validators.IS_EMAIL'>"
p347
sS'IS_NOT_EMPTY'
p348
S"<class 'gluon.validators.IS_NOT_EMPTY'>"
p349
sS'xrange'
p350
S"<type 'xrange'>"
p351
sS'TBODY'
p352
S"<class 'gluon.html.TBODY'>"
p353
sS'CAT'
p354
S"<class 'gluon.html.CAT'>"
p355
sS'Field'
p356
S"<class 'pydal.objects.Field'>"
p357
sS'IS_LIST_OF_EMAILS'
p358
S"<class 'gluon.validators.IS_LIST_OF_EMAILS'>"
p359
sg58
S"<Storage {'_vars': <Storage {}>, 'function': 'pr...mmyB/Desktop/web2py/applications/cs183project/'}>"
p360
sS'DIV'
p361
S"<class 'gluon.html.DIV'>"
p362
sS'LEGEND'
p363
S"<class 'gluon.html.LEGEND'>"
p364
sS'to_native'
p365
S'<function to_native>'
p366
sS'COLGROUP'
p367
S"<class 'gluon.html.COLGROUP'>"
p368
sS'DAL'
p369
S"<class 'pydal.base.DAL'>"
p370
sS'ASSIGNJS'
p371
S'<function ASSIGNJS>'
p372
sS'TR'
p373
S"<class 'gluon.html.TR'>"
p374
sS'LI'
p375
S"<class 'gluon.html.LI'>"
p376
sS'TH'
p377
S"<class 'gluon.html.TH'>"
p378
sS'TD'
p379
S"<class 'gluon.html.TD'>"
p380
sS'PluginManager'
p381
S"<class 'gluon.tools.PluginManager'>"
p382
sS'IS_URL'
p383
S"<class 'gluon.validators.IS_URL'>"
p384
sS'A'
S"<class 'gluon.html.A'>"
p385
sS'HEAD'
p386
S"<class 'gluon.html.HEAD'>"
p387
sS'IS_DATETIME_IN_RANGE'
p388
S"<class 'gluon.validators.IS_DATETIME_IN_RANGE'>"
p389
sS'FORM'
p390
S"<class 'gluon.html.FORM'>"
p391
sS'I'
S"<class 'gluon.html.I'>"
p392
sS'sys'
p393
S"<module 'sys' (built-in)>"
p394
sS'IS_NOT_IN_DB'
p395
S"<class 'gluon.validators.IS_NOT_IN_DB'>"
p396
sg134
S"<Storage {'body': <cStringIO.StringO object at 0... session_data)>, 'view': 'default/profile.html'}>"
p397
sS'THEAD'
p398
S"<class 'gluon.html.THEAD'>"
p399
sS'ANY_OF'
p400
S"<class 'gluon.validators.ANY_OF'>"
p401
sS'IS_NULL_OR'
p402
S"<class 'gluon.validators.IS_EMPTY_OR'>"
p403
sS'__name__'
p404
S"'__restricted__'"
p405
sS'IS_FLOAT_IN_RANGE'
p406
S"<class 'gluon.validators.IS_FLOAT_IN_RANGE'>"
p407
sS'IS_EXPR'
p408
S"<class 'gluon.validators.IS_EXPR'>"
p409
sS'T'
S'<gluon.languages.translator object>'
p410
sS'IS_IN_SET'
p411
S"<class 'gluon.validators.IS_IN_SET'>"
p412
sS'IS_UPLOAD_FILENAME'
p413
S"<class 'gluon.validators.IS_UPLOAD_FILENAME'>"
p414
sS'TT'
p415
S"<class 'gluon.html.TT'>"
p416
sS'IS_DECIMAL_IN_RANGE'
p417
S"<class 'gluon.validators.IS_DECIMAL_IN_RANGE'>"
p418
sssS'traceback'
p419
S'Traceback (most recent call last):\n  File "/Users/EmmyB/Desktop/web2py/gluon/restricted.py", line 219, in restricted\n    exec(ccode, environment)\n  File "/Users/EmmyB/Desktop/web2py/applications/cs183project/views/default/profile.html", line 96, in <module>\n    Zip Code: <input type="text" name="zip" v-model="form_zip" placeholder="Zip code..."><br>\nNameError: name \'value\' is not defined\n'
p420
s.